libqtelegram-ae.so.1:_Z11TG_CORE_APIv
libqtelegram-ae.so.1:_Z11TG_TELEGRAMv
libqtelegram-ae.so.1:_Z13TG_LIB_SECRETv
libqtelegram-ae.so.1:_Z13TG_UTIL_UTILSv
libqtelegram-ae.so.1:_Z14TG_CORE_DCAUTHv
libqtelegram-ae.so.1:_Z15TG_CORE_SESSIONv
libqtelegram-ae.so.1:_Z16TG_CORE_SETTINGSv
libqtelegram-ae.so.1:_Z18TG_CORE_CONNECTIONv
libqtelegram-ae.so.1:_Z18TG_CORE_DCPROVIDERv
libqtelegram-ae.so.1:_Z18TG_CORE_INBOUNDPKTv
libqtelegram-ae.so.1:_Z19TG_CORE_OUTBOUNDPKTv
libqtelegram-ae.so.1:_Z19TG_FILE_FILEHANDLERv
libqtelegram-ae.so.1:_Z19TG_SECRET_DECRYPTERv
libqtelegram-ae.so.1:_Z19TG_SECRET_ENCRYPTERv
libqtelegram-ae.so.1:_Z20TG_SECRET_SECRETCHATv
libqtelegram-ae.so.1:_Z22TG_CORE_SESSIONMANAGERv
libqtelegram-ae.so.1:_Z26telegram_settings_read_fncRK7QStringS1_R4QMapIS_8QVariantE
libqtelegram-ae.so.1:_Z27telegram_settings_auth_pathRK7QStringS1_
libqtelegram-ae.so.1:_Z27telegram_settings_write_fncRK7QStringS1_RK4QMapIS_8QVariantE
libqtelegram-ae.so.1:_Z8lessThanRK7ContactS1_
libqtelegram-ae.so.1:_ZN10ChatInvite12setClassTypeENS_14ChatInviteTypeE
libqtelegram-ae.so.1:_ZN10ChatInvite5fetchEP10InboundPkt
libqtelegram-ae.so.1:_ZN10ChatInvite7setChatERK4Chat
libqtelegram-ae.so.1:_ZN10ChatInvite8setTitleERK7QString
libqtelegram-ae.so.1:_ZN10ChatInviteC1ENS_14ChatInviteTypeEP10InboundPkt
libqtelegram-ae.so.1:_ZN10ChatInviteC1EP10InboundPkt
libqtelegram-ae.so.1:_ZN10ChatInviteC2ENS_14ChatInviteTypeEP10InboundPkt
libqtelegram-ae.so.1:_ZN10ChatInviteC2EP10InboundPkt
libqtelegram-ae.so.1:_ZN10ChatInviteD0Ev
libqtelegram-ae.so.1:_ZN10ChatInviteD1Ev
libqtelegram-ae.so.1:_ZN10ChatInviteD2Ev
libqtelegram-ae.so.1:_ZN10ChatInviteeqERKS_
libqtelegram-ae.so.1:_ZN10Connection10fatalErrorEv
libqtelegram-ae.so.1:_ZN10Connection10timerEventEP11QTimerEvent
libqtelegram-ae.so.1:_ZN10Connection11onConnectedEv
libqtelegram-ae.so.1:_ZN10Connection11onReadyReadEv
libqtelegram-ae.so.1:_ZN10Connection11qt_metacallEN11QMetaObject4CallEiPPv
libqtelegram-ae.so.1:_ZN10Connection11qt_metacastEPKc
libqtelegram-ae.so.1:_ZN10Connection11setupSocketEv
libqtelegram-ae.so.1:_ZN10Connection14onDisconnectedEv
libqtelegram-ae.so.1:_ZN10Connection15connectToServerEv
libqtelegram-ae.so.1:_ZN10Connection16stopReconnectingEv
libqtelegram-ae.so.1:_ZN10Connection6peekInEPvi
libqtelegram-ae.so.1:_ZN10Connection6readInEPvi
libqtelegram-ae.so.1:_ZN10Connection6readInEi
libqtelegram-ae.so.1:_ZN10Connection7onErrorEN15QAbstractSocket11SocketErrorE
libqtelegram-ae.so.1:_ZN10Connection7readAllEv
libqtelegram-ae.so.1:_ZN10Connection8writeOutEPKvx
libqtelegram-ae.so.1:_ZN10ConnectionC1ERK7QStringiP7QObject
libqtelegram-ae.so.1:_ZN10ConnectionC2ERK7QStringiP7QObject
libqtelegram-ae.so.1:_ZN10ConnectionD0Ev
libqtelegram-ae.so.1:_ZN10ConnectionD1Ev
libqtelegram-ae.so.1:_ZN10ConnectionD2Ev
libqtelegram-ae.so.1:_ZN10DcProvider10authNeededEv
libqtelegram-ae.so.1:_ZN10DcProvider10fatalErrorEv
libqtelegram-ae.so.1:_ZN10DcProvider10initializeEv
libqtelegram-ae.so.1:_ZN10DcProvider10onApiErrorEv
libqtelegram-ae.so.1:_ZN10DcProvider10onApiReadyEP2DC
libqtelegram-ae.so.1:_ZN10DcProvider11qt_metacallEN11QMetaObject4CallEiPPv
libqtelegram-ae.so.1:_ZN10DcProvider11qt_metacastEPKc
libqtelegram-ae.so.1:_ZN10DcProvider12transferAuthEv
libqtelegram-ae.so.1:_ZN10DcProvider14processDcReadyEP2DC
libqtelegram-ae.so.1:_ZN10DcProvider15dcProviderReadyEv
libqtelegram-ae.so.1:_ZN10DcProvider16onConfigReceivedExRK6Config
libqtelegram-ae.so.1:_ZN10DcProvider20onDcAuthDisconnectedEv
libqtelegram-ae.so.1:_ZN10DcProvider21authTransferCompletedEv
libqtelegram-ae.so.1:_ZN10DcProvider22onTransferSessionReadyEP2DC
libqtelegram-ae.so.1:_ZN10DcProvider27onAuthExportedAuthorizationExiRK10QByteArray
libqtelegram-ae.so.1:_ZN10DcProvider27onAuthImportedAuthorizationExiRK4User
libqtelegram-ae.so.1:_ZN10DcProvider5cleanEv
libqtelegram-ae.so.1:_ZN10DcProvider5errorExiRK7QString
libqtelegram-ae.so.1:_ZN10DcProvider6logOutEv
libqtelegram-ae.so.1:_ZN10DcProvider9onDcReadyEP2DC
libqtelegram-ae.so.1:_ZN10DcProviderC1EP8SettingsP11CryptoUtils
libqtelegram-ae.so.1:_ZN10DcProviderC2EP8SettingsP11CryptoUtils
libqtelegram-ae.so.1:_ZN10DcProviderD0Ev
libqtelegram-ae.so.1:_ZN10DcProviderD1Ev
libqtelegram-ae.so.1:_ZN10DcProviderD2Ev
libqtelegram-ae.so.1:_ZN10EventTimer11qt_metacallEN11QMetaObject4CallEiPPv
libqtelegram-ae.so.1:_ZN10EventTimer11qt_metacastEPKc
libqtelegram-ae.so.1:_ZN10EventTimer12timerTimeoutEx
libqtelegram-ae.so.1:_ZN10EventTimer9onTimeoutEv
libqtelegram-ae.so.1:_ZN10EventTimerC1ExiP7QObject
libqtelegram-ae.so.1:_ZN10EventTimerC2ExiP7QObject
libqtelegram-ae.so.1:_ZN10InboundPkt10fetchBytesEv
libqtelegram-ae.so.1:_ZN10InboundPkt11fetchBignumEP9bignum_st
libqtelegram-ae.so.1:_ZN10InboundPkt11fetchDoubleEv
libqtelegram-ae.so.1:_ZN10InboundPkt11prefetchIntEv
libqtelegram-ae.so.1:_ZN10InboundPkt12fetchQStringEv
libqtelegram-ae.so.1:_ZN10InboundPkt12forwardInPtrEi
libqtelegram-ae.so.1:_ZN10InboundPkt14prefetchStrlenEv
libqtelegram-ae.so.1:_ZN10InboundPkt5inEndEv
libqtelegram-ae.so.1:_ZN10InboundPkt5inPtrEv
libqtelegram-ae.so.1:_ZN10InboundPkt8fetchIntEv
libqtelegram-ae.so.1:_ZN10InboundPkt8fetchStrEi
libqtelegram-ae.so.1:_ZN10InboundPkt8setInEndEPi
libqtelegram-ae.so.1:_ZN10InboundPkt8setInPtrEPi
libqtelegram-ae.so.1:_ZN10InboundPkt9fetchBoolEv
libqtelegram-ae.so.1:_ZN10InboundPkt9fetchDateEv
libqtelegram-ae.so.1:_ZN10InboundPkt9fetchIntsEi
libqtelegram-ae.so.1:_ZN10InboundPkt9fetchLongEv
libqtelegram-ae.so.1:_ZN10InboundPktC1EPci
libqtelegram-ae.so.1:_ZN10InboundPktC2EPci
libqtelegram-ae.so.1:_ZN10InboundPktD0Ev
libqtelegram-ae.so.1:_ZN10InboundPktD1Ev
libqtelegram-ae.so.1:_ZN10InboundPktD2Ev
libqtelegram-ae.so.1:_ZN10InputAudio12setClassTypeENS_14InputAudioTypeE
libqtelegram-ae.so.1:_ZN10InputAudio13setAccessHashEx
libqtelegram-ae.so.1:_ZN10InputAudio5fetchEP10InboundPkt
libqtelegram-ae.so.1:_ZN10InputAudio5setIdEx
libqtelegram-ae.so.1:_ZN10InputAudioC1ENS_14InputAudioTypeEP10InboundPkt
libqtelegram-ae.so.1:_ZN10InputAudioC1EP10InboundPkt
libqtelegram-ae.so.1:_ZN10InputAudioC2ENS_14InputAudioTypeEP10InboundPkt
libqtelegram-ae.so.1:_ZN10InputAudioC2EP10InboundPkt
libqtelegram-ae.so.1:_ZN10InputAudioD0Ev
libqtelegram-ae.so.1:_ZN10InputAudioD1Ev
libqtelegram-ae.so.1:_ZN10InputAudioD2Ev
libqtelegram-ae.so.1:_ZN10InputAudioeqERKS_
libqtelegram-ae.so.1:_ZN10InputMedia10setAddressERK7QString
libqtelegram-ae.so.1:_ZN10InputMedia10setCaptionERK7QString
libqtelegram-ae.so.1:_ZN10InputMedia10setVenueIdERK7QString
libqtelegram-ae.so.1:_ZN10InputMedia11setDurationEi
libqtelegram-ae.so.1:_ZN10InputMedia11setGeoPointERK13InputGeoPoint
libqtelegram-ae.so.1:_ZN10InputMedia11setLastNameERK7QString
libqtelegram-ae.so.1:_ZN10InputMedia11setMimeTypeERK7QString
libqtelegram-ae.so.1:_ZN10InputMedia11setProviderERK7QString
libqtelegram-ae.so.1:_ZN10InputMedia12setClassTypeENS_14InputMediaTypeE
libqtelegram-ae.so.1:_ZN10InputMedia12setFirstNameERK7QString
libqtelegram-ae.so.1:_ZN10InputMedia13setAttributesERK5QListI17DocumentAttributeE
libqtelegram-ae.so.1:_ZN10InputMedia14setPhoneNumberERK7QString
libqtelegram-ae.so.1:_ZN10InputMedia15setIdInputAudioERK10InputAudio
libqtelegram-ae.so.1:_ZN10InputMedia15setIdInputPhotoERK10InputPhoto
libqtelegram-ae.so.1:_ZN10InputMedia15setIdInputVideoERK10InputVideo
libqtelegram-ae.so.1:_ZN10InputMedia18setIdInputDocumentERK13InputDocument
libqtelegram-ae.so.1:_ZN10InputMedia4setHEi
libqtelegram-ae.so.1:_ZN10InputMedia4setWEi
libqtelegram-ae.so.1:_ZN10InputMedia5fetchEP10InboundPkt
libqtelegram-ae.so.1:_ZN10InputMedia7setFileERK9InputFile
libqtelegram-ae.so.1:_ZN10InputMedia8setThumbERK9InputFile
libqtelegram-ae.so.1:_ZN10InputMedia8setTitleERK7QString
libqtelegram-ae.so.1:_ZN10InputMediaC1ENS_14InputMediaTypeEP10InboundPkt
libqtelegram-ae.so.1:_ZN10InputMediaC1EP10InboundPkt
libqtelegram-ae.so.1:_ZN10InputMediaC2ENS_14InputMediaTypeEP10InboundPkt
libqtelegram-ae.so.1:_ZN10InputMediaC2EP10InboundPkt
libqtelegram-ae.so.1:_ZN10InputMediaD0Ev
libqtelegram-ae.so.1:_ZN10InputMediaD1Ev
libqtelegram-ae.so.1:_ZN10InputMediaD2Ev
libqtelegram-ae.so.1:_ZN10InputMediaeqERKS_
libqtelegram-ae.so.1:_ZN10InputPhoto12setClassTypeENS_14InputPhotoTypeE
libqtelegram-ae.so.1:_ZN10InputPhoto13setAccessHashEx
libqtelegram-ae.so.1:_ZN10InputPhoto5fetchEP10InboundPkt
libqtelegram-ae.so.1:_ZN10InputPhoto5setIdEx
libqtelegram-ae.so.1:_ZN10InputPhotoC1ENS_14InputPhotoTypeEP10InboundPkt
libqtelegram-ae.so.1:_ZN10InputPhotoC1EP10InboundPkt
libqtelegram-ae.so.1:_ZN10InputPhotoC2ENS_14InputPhotoTypeEP10InboundPkt
libqtelegram-ae.so.1:_ZN10InputPhotoC2EP10InboundPkt
libqtelegram-ae.so.1:_ZN10InputPhotoD0Ev
libqtelegram-ae.so.1:_ZN10InputPhotoD1Ev
libqtelegram-ae.so.1:_ZN10InputPhotoD2Ev
libqtelegram-ae.so.1:_ZN10InputPhotoeqERKS_
libqtelegram-ae.so.1:_ZN10InputVideo12setClassTypeENS_14InputVideoTypeE
libqtelegram-ae.so.1:_ZN10InputVideo13setAccessHashEx
libqtelegram-ae.so.1:_ZN10InputVideo5fetchEP10InboundPkt
libqtelegram-ae.so.1:_ZN10InputVideo5setIdEx
libqtelegram-ae.so.1:_ZN10InputVideoC1ENS_14InputVideoTypeEP10InboundPkt
libqtelegram-ae.so.1:_ZN10InputVideoC1EP10InboundPkt
libqtelegram-ae.so.1:_ZN10InputVideoC2ENS_14InputVideoTypeEP10InboundPkt
libqtelegram-ae.so.1:_ZN10InputVideoC2EP10InboundPkt
libqtelegram-ae.so.1:_ZN10InputVideoD0Ev
libqtelegram-ae.so.1:_ZN10InputVideoD1Ev
libqtelegram-ae.so.1:_ZN10InputVideoD2Ev
libqtelegram-ae.so.1:_ZN10InputVideoeqERKS_
libqtelegram-ae.so.1:_ZN10NotifyPeer12setClassTypeENS_14NotifyPeerTypeE
libqtelegram-ae.so.1:_ZN10NotifyPeer5fetchEP10InboundPkt
libqtelegram-ae.so.1:_ZN10NotifyPeer7setPeerERK4Peer
libqtelegram-ae.so.1:_ZN10NotifyPeerC1ENS_14NotifyPeerTypeEP10InboundPkt
libqtelegram-ae.so.1:_ZN10NotifyPeerC1EP10InboundPkt
libqtelegram-ae.so.1:_ZN10NotifyPeerC2ENS_14NotifyPeerTypeEP10InboundPkt
libqtelegram-ae.so.1:_ZN10NotifyPeerC2EP10InboundPkt
libqtelegram-ae.so.1:_ZN10NotifyPeerD0Ev
libqtelegram-ae.so.1:_ZN10NotifyPeerD1Ev
libqtelegram-ae.so.1:_ZN10NotifyPeerD2Ev
libqtelegram-ae.so.1:_ZN10NotifyPeereqERKS_
libqtelegram-ae.so.1:_ZN10PrivacyKey12setClassTypeENS_14PrivacyKeyTypeE
libqtelegram-ae.so.1:_ZN10PrivacyKey5fetchEP10InboundPkt
libqtelegram-ae.so.1:_ZN10PrivacyKeyC1ENS_14PrivacyKeyTypeEP10InboundPkt
libqtelegram-ae.so.1:_ZN10PrivacyKeyC1EP10InboundPkt
libqtelegram-ae.so.1:_ZN10PrivacyKeyC2ENS_14PrivacyKeyTypeEP10InboundPkt
libqtelegram-ae.so.1:_ZN10PrivacyKeyC2EP10InboundPkt
libqtelegram-ae.so.1:_ZN10PrivacyKeyD0Ev
libqtelegram-ae.so.1:_ZN10PrivacyKeyD1Ev
libqtelegram-ae.so.1:_ZN10PrivacyKeyD2Ev
libqtelegram-ae.so.1:_ZN10PrivacyKeyeqERKS_
libqtelegram-ae.so.1:_ZN10SecretChat10setAdminIdEi
libqtelegram-ae.so.1:_ZN10SecretChat10setInSeqNoEi
libqtelegram-ae.so.1:_ZN10SecretChat11createMyKeyERK10QByteArray
libqtelegram-ae.so.1:_ZN10SecretChat11setOutSeqNoEi
libqtelegram-ae.so.1:_ZN10SecretChat11setSequenceERK5QListIxE
libqtelegram-ae.so.1:_ZN10SecretChat13setAccessHashEx
libqtelegram-ae.so.1:_ZN10SecretChat14keyFingerprintEv
libqtelegram-ae.so.1:_ZN10SecretChat15getInSeqNoParamEv
libqtelegram-ae.so.1:_ZN10SecretChat16appendToSequenceEx
libqtelegram-ae.so.1:_ZN10SecretChat16getOutSeqNoParamEv
libqtelegram-ae.so.1:_ZN10SecretChat16increaseOutSeqNoEv
libqtelegram-ae.so.1:_ZN10SecretChat16setParticipantIdEi
libqtelegram-ae.so.1:_ZN10SecretChat16setRequestedUserERK9InputUser
libqtelegram-ae.so.1:_ZN10SecretChat17setKeyFingerprintEx
libqtelegram-ae.so.1:_ZN10SecretChat5myKeyEv
libqtelegram-ae.so.1:_ZN10SecretChat7setDateEi
libqtelegram-ae.so.1:_ZN10SecretChat8sequenceEv
libqtelegram-ae.so.1:_ZN10SecretChat8setGAOrBE10QByteArray
libqtelegram-ae.so.1:_ZN10SecretChat8setLayerEi
libqtelegram-ae.so.1:_ZN10SecretChat8setMyKeyEP9bignum_st
libqtelegram-ae.so.1:_ZN10SecretChat8setStateENS_5StateE
libqtelegram-ae.so.1:_ZN10SecretChat9setChatIdEi
libqtelegram-ae.so.1:_ZN10SecretChat9sharedKeyEv
libqtelegram-ae.so.1:_ZN10SecretChatC1EP8Settings
libqtelegram-ae.so.1:_ZN10SecretChatC2EP8Settings
libqtelegram-ae.so.1:_ZN10SecretChatD1Ev
libqtelegram-ae.so.1:_ZN10SecretChatD2Ev
libqtelegram-ae.so.1:_ZN10StickerSet12setClassTypeENS_14StickerSetTypeE
libqtelegram-ae.so.1:_ZN10StickerSet12setShortNameERK7QString
libqtelegram-ae.so.1:_ZN10StickerSet13setAccessHashEx
libqtelegram-ae.so.1:_ZN10StickerSet5fetchEP10InboundPkt
libqtelegram-ae.so.1:_ZN10StickerSet5setIdEx
libqtelegram-ae.so.1:_ZN10StickerSet8setTitleERK7QString
libqtelegram-ae.so.1:_ZN10StickerSetC1ENS_14StickerSetTypeEP10InboundPkt
libqtelegram-ae.so.1:_ZN10StickerSetC1EP10InboundPkt
libqtelegram-ae.so.1:_ZN10StickerSetC2ENS_14StickerSetTypeEP10InboundPkt
libqtelegram-ae.so.1:_ZN10StickerSetC2EP10InboundPkt
libqtelegram-ae.so.1:_ZN10StickerSetD0Ev
libqtelegram-ae.so.1:_ZN10StickerSetD1Ev
libqtelegram-ae.so.1:_ZN10StickerSetD2Ev
libqtelegram-ae.so.1:_ZN10StickerSeteqERKS_
libqtelegram-ae.so.1:_ZN10UploadFile12setClassTypeENS_14UploadFileTypeE
libqtelegram-ae.so.1:_ZN10UploadFile5fetchEP10InboundPkt
libqtelegram-ae.so.1:_ZN10UploadFile7setTypeERK15StorageFileType
libqtelegram-ae.so.1:_ZN10UploadFile8setBytesERK10QByteArray
libqtelegram-ae.so.1:_ZN10UploadFile8setMtimeEi
libqtelegram-ae.so.1:_ZN10UploadFileC1ENS_14UploadFileTypeEP10InboundPkt
libqtelegram-ae.so.1:_ZN10UploadFileC1EP10InboundPkt
libqtelegram-ae.so.1:_ZN10UploadFileC2ENS_14UploadFileTypeEP10InboundPkt
libqtelegram-ae.so.1:_ZN10UploadFileC2EP10InboundPkt
libqtelegram-ae.so.1:_ZN10UploadFileD0Ev
libqtelegram-ae.so.1:_ZN10UploadFileD1Ev
libqtelegram-ae.so.1:_ZN10UploadFileD2Ev
libqtelegram-ae.so.1:_ZN10UploadFileeqERKS_
libqtelegram-ae.so.1:_ZN10UserStatus10setExpiresEi
libqtelegram-ae.so.1:_ZN10UserStatus12setClassTypeENS_14UserStatusTypeE
libqtelegram-ae.so.1:_ZN10UserStatus12setWasOnlineEi
libqtelegram-ae.so.1:_ZN10UserStatus5fetchEP10InboundPkt
libqtelegram-ae.so.1:_ZN10UserStatusC1ENS_14UserStatusTypeEP10InboundPkt
libqtelegram-ae.so.1:_ZN10UserStatusC1EP10InboundPkt
libqtelegram-ae.so.1:_ZN10UserStatusC2ENS_14UserStatusTypeEP10InboundPkt
libqtelegram-ae.so.1:_ZN10UserStatusC2EP10InboundPkt
libqtelegram-ae.so.1:_ZN10UserStatusD0Ev
libqtelegram-ae.so.1:_ZN10UserStatusD1Ev
libqtelegram-ae.so.1:_ZN10UserStatusD2Ev
libqtelegram-ae.so.1:_ZN10UserStatuseqERKS_
libqtelegram-ae.so.1:_ZN11AbstractApi10fatalErrorEv
libqtelegram-ae.so.1:_ZN11AbstractApi11qt_metacallEN11QMetaObject4CallEiPPv
libqtelegram-ae.so.1:_ZN11AbstractApi11qt_metacastEPKc
libqtelegram-ae.so.1:_ZN11AbstractApi11updateShortERK6Updatei
libqtelegram-ae.so.1:_ZN11AbstractApi14updatesTooLongEv
libqtelegram-ae.so.1:_ZN11AbstractApi15onErrorReceivedEP5Queryi7QString
libqtelegram-ae.so.1:_ZN11AbstractApi15updatesCombinedERK5QListI6UpdateERKS0_I4UserERKS0_I4ChatEiii
libqtelegram-ae.so.1:_ZN11AbstractApi16onResultReceivedEP5QueryR10InboundPkt
libqtelegram-ae.so.1:_ZN11AbstractApi18updateShortMessageEiiRK7QStringiiiiiibb
libqtelegram-ae.so.1:_ZN11AbstractApi21connectUpdatesSignalsEP7Session
libqtelegram-ae.so.1:_ZN11AbstractApi22updateShortChatMessageEiiiRK7QStringiiiiiibb
libqtelegram-ae.so.1:_ZN11AbstractApi23connectResponsesSignalsEP7Session
libqtelegram-ae.so.1:_ZN11AbstractApi7updatesERK5QListI6UpdateERKS0_I4UserERKS0_I4ChatEii
libqtelegram-ae.so.1:_ZN11AbstractApiC1EP7SessionP8SettingsP11CryptoUtilsP7QObject
libqtelegram-ae.so.1:_ZN11AbstractApiC2EP7SessionP8SettingsP11CryptoUtilsP7QObject
libqtelegram-ae.so.1:_ZN11AbstractApiD0Ev
libqtelegram-ae.so.1:_ZN11AbstractApiD1Ev
libqtelegram-ae.so.1:_ZN11AbstractApiD2Ev
libqtelegram-ae.so.1:_ZN11ChatLocated11setDistanceEi
libqtelegram-ae.so.1:_ZN11ChatLocated12setClassTypeENS_15ChatLocatedTypeE
libqtelegram-ae.so.1:_ZN11ChatLocated5fetchEP10InboundPkt
libqtelegram-ae.so.1:_ZN11ChatLocated9setChatIdEi
libqtelegram-ae.so.1:_ZN11ChatLocatedC1ENS_15ChatLocatedTypeEP10InboundPkt
libqtelegram-ae.so.1:_ZN11ChatLocatedC1EP10InboundPkt
libqtelegram-ae.so.1:_ZN11ChatLocatedC2ENS_15ChatLocatedTypeEP10InboundPkt
libqtelegram-ae.so.1:_ZN11ChatLocatedC2EP10InboundPkt
libqtelegram-ae.so.1:_ZN11ChatLocatedD0Ev
libqtelegram-ae.so.1:_ZN11ChatLocatedD1Ev
libqtelegram-ae.so.1:_ZN11ChatLocatedD2Ev
libqtelegram-ae.so.1:_ZN11ChatLocatedeqERKS_
libqtelegram-ae.so.1:_ZN11ContactLink12setClassTypeENS_15ContactLinkTypeE
libqtelegram-ae.so.1:_ZN11ContactLink5fetchEP10InboundPkt
libqtelegram-ae.so.1:_ZN11ContactLinkC1ENS_15ContactLinkTypeEP10InboundPkt
libqtelegram-ae.so.1:_ZN11ContactLinkC1EP10InboundPkt
libqtelegram-ae.so.1:_ZN11ContactLinkC2ENS_15ContactLinkTypeEP10InboundPkt
libqtelegram-ae.so.1:_ZN11ContactLinkC2EP10InboundPkt
libqtelegram-ae.so.1:_ZN11ContactLinkD0Ev
libqtelegram-ae.so.1:_ZN11ContactLinkD1Ev
libqtelegram-ae.so.1:_ZN11ContactLinkD2Ev
libqtelegram-ae.so.1:_ZN11ContactLinkeqERKS_
libqtelegram-ae.so.1:_ZN11CryptoUtils10checkPrimeEP9bignum_st
libqtelegram-ae.so.1:_ZN11CryptoUtils11initAESAuthEPcS0_i
libqtelegram-ae.so.1:_ZN11CryptoUtils11qt_metacallEN11QMetaObject4CallEiPPv
libqtelegram-ae.so.1:_ZN11CryptoUtils11qt_metacastEPKc
libqtelegram-ae.so.1:_ZN11CryptoUtils13checkDHParamsEP9bignum_sti
libqtelegram-ae.so.1:_ZN11CryptoUtils13initAESUnAuthEPKcS1_i
libqtelegram-ae.so.1:_ZN11CryptoUtils13padAESDecryptEPKciPci
libqtelegram-ae.so.1:_ZN11CryptoUtils13padAESEncryptEPKciPci
libqtelegram-ae.so.1:_ZN11CryptoUtils13padRsaEncryptEPciS0_iP9bignum_stS2_
libqtelegram-ae.so.1:_ZN11CryptoUtils15decryptFilePartERK10QByteArrayPhS3_
libqtelegram-ae.so.1:_ZN11CryptoUtils15encryptFilePartERK10QByteArrayPhS3_
libqtelegram-ae.so.1:_ZN11CryptoUtils19encryptPacketBufferER11OutboundPktPv
libqtelegram-ae.so.1:_ZN11CryptoUtils21checkCalculatedParamsEPK9bignum_stS2_S2_
libqtelegram-ae.so.1:_ZN11CryptoUtils21computeKeyFingerprintERK10QByteArrayS2_
libqtelegram-ae.so.1:_ZN11CryptoUtils28encryptPacketBufferAESUnAuthEPKcS1_R11OutboundPktPv
libqtelegram-ae.so.1:_ZN11CryptoUtils8BNModExpEP9bignum_stPKS0_S3_S3_
libqtelegram-ae.so.1:_ZN11CryptoUtilsC1EP8Settings
libqtelegram-ae.so.1:_ZN11CryptoUtilsC2EP8Settings
libqtelegram-ae.so.1:_ZN11CryptoUtilsD0Ev
libqtelegram-ae.so.1:_ZN11CryptoUtilsD1Ev
libqtelegram-ae.so.1:_ZN11CryptoUtilsD2Ev
libqtelegram-ae.so.1:_ZN11FileHandler11qt_metacallEN11QMetaObject4CallEiPPv
libqtelegram-ae.so.1:_ZN11FileHandler11qt_metacastEPKc
libqtelegram-ae.so.1:_ZN11FileHandler13uploadGetFileERK17InputFileLocationiiRK10QByteArrayS5_
libqtelegram-ae.so.1:_ZN11FileHandler14uploadSendFileER13FileOperationRK7QStringRK10QByteArrayS7_S4_
libqtelegram-ae.so.1:_ZN11FileHandler14uploadSendFileER13FileOperationRK7QStringS4_
libqtelegram-ae.so.1:_ZN11FileHandler16uploadCancelFileEx
libqtelegram-ae.so.1:_ZN11FileHandler17messagesSentMediaExRK11UpdatesType
libqtelegram-ae.so.1:_ZN11FileHandler17onUpdateMessageIdExx
libqtelegram-ae.so.1:_ZN11FileHandler19onMessagesSentMediaExRK11UpdatesType
libqtelegram-ae.so.1:_ZN11FileHandler19uploadGetFileAnswerExRK15StorageFileTypeiRK10QByteArrayiii
libqtelegram-ae.so.1:_ZN11FileHandler19uploadSendFilePartsER16UploadFileEngine
libqtelegram-ae.so.1:_ZN11FileHandler20onUploadGetFileErrorExiRK7QString
libqtelegram-ae.so.1:_ZN11FileHandler20uploadSendFileAnswerExiii
libqtelegram-ae.so.1:_ZN11FileHandler21onUploadGetFileAnswerExRK15StorageFileTypei10QByteArray
libqtelegram-ae.so.1:_ZN11FileHandler22uploadCancelFileAnswerExb
libqtelegram-ae.so.1:_ZN11FileHandler26onUploadSaveFilePartResultExxb
libqtelegram-ae.so.1:_ZN11FileHandler27onMessagesSentEncryptedFileExiRK13EncryptedFile
libqtelegram-ae.so.1:_ZN11FileHandler29onUploadGetFileSessionCreatedEv
libqtelegram-ae.so.1:_ZN11FileHandler30onUploadSendFileSessionCreatedEv
libqtelegram-ae.so.1:_ZN11FileHandler31messagesSendEncryptedFileAnswerExiRK13EncryptedFile
libqtelegram-ae.so.1:_ZN11FileHandler5errorExiRK7QString
libqtelegram-ae.so.1:_ZN11FileHandlerC1EP3ApiP11CryptoUtilsP8SettingsR10DcProviderR11SecretStateP7QObject
libqtelegram-ae.so.1:_ZN11FileHandlerC2EP3ApiP11CryptoUtilsP8SettingsR10DcProviderR11SecretStateP7QObject
libqtelegram-ae.so.1:_ZN11FileHandlerD0Ev
libqtelegram-ae.so.1:_ZN11FileHandlerD1Ev
libqtelegram-ae.so.1:_ZN11FileHandlerD2Ev
libqtelegram-ae.so.1:_ZN11HelpSupport12setClassTypeENS_15HelpSupportTypeE
libqtelegram-ae.so.1:_ZN11HelpSupport14setPhoneNumberERK7QString
libqtelegram-ae.so.1:_ZN11HelpSupport5fetchEP10InboundPkt
libqtelegram-ae.so.1:_ZN11HelpSupport7setUserERK4User
libqtelegram-ae.so.1:_ZN11HelpSupportC1ENS_15HelpSupportTypeEP10InboundPkt
libqtelegram-ae.so.1:_ZN11HelpSupportC1EP10InboundPkt
libqtelegram-ae.so.1:_ZN11HelpSupportC2ENS_15HelpSupportTypeEP10InboundPkt
libqtelegram-ae.so.1:_ZN11HelpSupportC2EP10InboundPkt
libqtelegram-ae.so.1:_ZN11HelpSupportD0Ev
libqtelegram-ae.so.1:_ZN11HelpSupportD1Ev
libqtelegram-ae.so.1:_ZN11HelpSupportD2Ev
libqtelegram-ae.so.1:_ZN11HelpSupporteqERKS_
libqtelegram-ae.so.1:_ZN11OutboundPkt10appendBoolEb
libqtelegram-ae.so.1:_ZN11OutboundPkt10appendDataEPKvi
libqtelegram-ae.so.1:_ZN11OutboundPkt10appendIntsEPKii
libqtelegram-ae.so.1:_ZN11OutboundPkt10appendLongEx
libqtelegram-ae.so.1:_ZN11OutboundPkt10forwardPtrEi
libqtelegram-ae.so.1:_ZN11OutboundPkt11appendBytesERK10QByteArray
libqtelegram-ae.so.1:_ZN11OutboundPkt11clearPacketEv
libqtelegram-ae.so.1:_ZN11OutboundPkt12appendBignumEP9bignum_st
libqtelegram-ae.so.1:_ZN11OutboundPkt12appendDoubleEd
libqtelegram-ae.so.1:_ZN11OutboundPkt12appendRandomEi
libqtelegram-ae.so.1:_ZN11OutboundPkt12appendStringEPKc
libqtelegram-ae.so.1:_ZN11OutboundPkt13appendCStringEPKci
libqtelegram-ae.so.1:_ZN11OutboundPkt13appendQStringERK7QString
libqtelegram-ae.so.1:_ZN11OutboundPkt14initConnectionEv
libqtelegram-ae.so.1:_ZN11OutboundPkt6bufferEv
libqtelegram-ae.so.1:_ZN11OutboundPkt9appendIntEi
libqtelegram-ae.so.1:_ZN11OutboundPktC1EP8Settings
libqtelegram-ae.so.1:_ZN11OutboundPktC2EP8Settings
libqtelegram-ae.so.1:_ZN11OutboundPktD0Ev
libqtelegram-ae.so.1:_ZN11OutboundPktD1Ev
libqtelegram-ae.so.1:_ZN11OutboundPktD2Ev
libqtelegram-ae.so.1:_ZN11PhotosPhoto12setClassTypeENS_15PhotosPhotoTypeE
libqtelegram-ae.so.1:_ZN11PhotosPhoto5fetchEP10InboundPkt
libqtelegram-ae.so.1:_ZN11PhotosPhoto8setPhotoERK5Photo
libqtelegram-ae.so.1:_ZN11PhotosPhoto8setUsersERK5QListI4UserE
libqtelegram-ae.so.1:_ZN11PhotosPhotoC1ENS_15PhotosPhotoTypeEP10InboundPkt
libqtelegram-ae.so.1:_ZN11PhotosPhotoC1EP10InboundPkt
libqtelegram-ae.so.1:_ZN11PhotosPhotoC2ENS_15PhotosPhotoTypeEP10InboundPkt
libqtelegram-ae.so.1:_ZN11PhotosPhotoC2EP10InboundPkt
libqtelegram-ae.so.1:_ZN11PhotosPhotoD0Ev
libqtelegram-ae.so.1:_ZN11PhotosPhotoD1Ev
libqtelegram-ae.so.1:_ZN11PhotosPhotoD2Ev
libqtelegram-ae.so.1:_ZN11PhotosPhotoeqERKS_
libqtelegram-ae.so.1:_ZN11PrivacyRule12setClassTypeENS_15PrivacyRuleTypeE
libqtelegram-ae.so.1:_ZN11PrivacyRule5fetchEP10InboundPkt
libqtelegram-ae.so.1:_ZN11PrivacyRule8setUsersERK5QListIiE
libqtelegram-ae.so.1:_ZN11PrivacyRuleC1ENS_15PrivacyRuleTypeEP10InboundPkt
libqtelegram-ae.so.1:_ZN11PrivacyRuleC1EP10InboundPkt
libqtelegram-ae.so.1:_ZN11PrivacyRuleC2ENS_15PrivacyRuleTypeEP10InboundPkt
libqtelegram-ae.so.1:_ZN11PrivacyRuleC2EP10InboundPkt
libqtelegram-ae.so.1:_ZN11PrivacyRuleD0Ev
libqtelegram-ae.so.1:_ZN11PrivacyRuleD1Ev
libqtelegram-ae.so.1:_ZN11PrivacyRuleD2Ev
libqtelegram-ae.so.1:_ZN11PrivacyRuleeqERKS_
libqtelegram-ae.so.1:_ZN11SecretState4loadEv
libqtelegram-ae.so.1:_ZN11SecretState4saveEv
libqtelegram-ae.so.1:_ZN11SecretState4setGEi
libqtelegram-ae.so.1:_ZN11SecretState4setPERK10QByteArray
libqtelegram-ae.so.1:_ZN11SecretStateC1EP8Settings
libqtelegram-ae.so.1:_ZN11SecretStateC2EP8Settings
libqtelegram-ae.so.1:_ZN11SecretStateD1Ev
libqtelegram-ae.so.1:_ZN11SecretStateD2Ev
libqtelegram-ae.so.1:_ZN11StickerPack11setEmoticonERK7QString
libqtelegram-ae.so.1:_ZN11StickerPack12setClassTypeENS_15StickerPackTypeE
libqtelegram-ae.so.1:_ZN11StickerPack12setDocumentsERK5QListIxE
libqtelegram-ae.so.1:_ZN11StickerPack5fetchEP10InboundPkt
libqtelegram-ae.so.1:_ZN11StickerPackC1ENS_15StickerPackTypeEP10InboundPkt
libqtelegram-ae.so.1:_ZN11StickerPackC1EP10InboundPkt
libqtelegram-ae.so.1:_ZN11StickerPackC2ENS_15StickerPackTypeEP10InboundPkt
libqtelegram-ae.so.1:_ZN11StickerPackC2EP10InboundPkt
libqtelegram-ae.so.1:_ZN11StickerPackD0Ev
libqtelegram-ae.so.1:_ZN11StickerPackD1Ev
libqtelegram-ae.so.1:_ZN11StickerPackD2Ev
libqtelegram-ae.so.1:_ZN11StickerPackeqERKS_
libqtelegram-ae.so.1:_ZN11UpdatesType10setFwdDateEi
libqtelegram-ae.so.1:_ZN11UpdatesType10setMessageERK7QString
libqtelegram-ae.so.1:_ZN11UpdatesType10setUpdatesERK5QListI6UpdateE
libqtelegram-ae.so.1:_ZN11UpdatesType11setPtsCountEi
libqtelegram-ae.so.1:_ZN11UpdatesType11setSeqStartEi
libqtelegram-ae.so.1:_ZN11UpdatesType12setClassTypeENS_15UpdatesTypeTypeE
libqtelegram-ae.so.1:_ZN11UpdatesType12setFwdFromIdEi
libqtelegram-ae.so.1:_ZN11UpdatesType15setReplyToMsgIdEi
libqtelegram-ae.so.1:_ZN11UpdatesType5fetchEP10InboundPkt
libqtelegram-ae.so.1:_ZN11UpdatesType5setIdEi
libqtelegram-ae.so.1:_ZN11UpdatesType6setPtsEi
libqtelegram-ae.so.1:_ZN11UpdatesType6setSeqEi
libqtelegram-ae.so.1:_ZN11UpdatesType7setDateEi
libqtelegram-ae.so.1:_ZN11UpdatesType8setChatsERK5QListI4ChatE
libqtelegram-ae.so.1:_ZN11UpdatesType8setFlagsEi
libqtelegram-ae.so.1:_ZN11UpdatesType8setUsersERK5QListI4UserE
libqtelegram-ae.so.1:_ZN11UpdatesType9setChatIdEi
libqtelegram-ae.so.1:_ZN11UpdatesType9setFromIdEi
libqtelegram-ae.so.1:_ZN11UpdatesType9setUpdateERK6Update
libqtelegram-ae.so.1:_ZN11UpdatesType9setUserIdEi
libqtelegram-ae.so.1:_ZN11UpdatesTypeC1ENS_15UpdatesTypeTypeEP10InboundPkt
libqtelegram-ae.so.1:_ZN11UpdatesTypeC1EP10InboundPkt
libqtelegram-ae.so.1:_ZN11UpdatesTypeC2ENS_15UpdatesTypeTypeEP10InboundPkt
libqtelegram-ae.so.1:_ZN11UpdatesTypeC2EP10InboundPkt
libqtelegram-ae.so.1:_ZN11UpdatesTypeD0Ev
libqtelegram-ae.so.1:_ZN11UpdatesTypeD1Ev
libqtelegram-ae.so.1:_ZN11UpdatesTypeD2Ev
libqtelegram-ae.so.1:_ZN11UpdatesTypeeqERKS_
libqtelegram-ae.so.1:_ZN12AuthSentCode12setClassTypeENS_16AuthSentCodeTypeE
libqtelegram-ae.so.1:_ZN12AuthSentCode13setIsPasswordEb
libqtelegram-ae.so.1:_ZN12AuthSentCode16setPhoneCodeHashERK7QString
libqtelegram-ae.so.1:_ZN12AuthSentCode18setPhoneRegisteredEb
libqtelegram-ae.so.1:_ZN12AuthSentCode18setSendCallTimeoutEi
libqtelegram-ae.so.1:_ZN12AuthSentCode5fetchEP10InboundPkt
libqtelegram-ae.so.1:_ZN12AuthSentCodeC1ENS_16AuthSentCodeTypeEP10InboundPkt
libqtelegram-ae.so.1:_ZN12AuthSentCodeC1EP10InboundPkt
libqtelegram-ae.so.1:_ZN12AuthSentCodeC2ENS_16AuthSentCodeTypeEP10InboundPkt
libqtelegram-ae.so.1:_ZN12AuthSentCodeC2EP10InboundPkt
libqtelegram-ae.so.1:_ZN12AuthSentCodeD0Ev
libqtelegram-ae.so.1:_ZN12AuthSentCodeD1Ev
libqtelegram-ae.so.1:_ZN12AuthSentCodeD2Ev
libqtelegram-ae.so.1:_ZN12AuthSentCodeeqERKS_
libqtelegram-ae.so.1:_ZN12ContactFound12setClassTypeENS_16ContactFoundTypeE
libqtelegram-ae.so.1:_ZN12ContactFound5fetchEP10InboundPkt
libqtelegram-ae.so.1:_ZN12ContactFound9setUserIdEi
libqtelegram-ae.so.1:_ZN12ContactFoundC1ENS_16ContactFoundTypeEP10InboundPkt
libqtelegram-ae.so.1:_ZN12ContactFoundC1EP10InboundPkt
libqtelegram-ae.so.1:_ZN12ContactFoundC2ENS_16ContactFoundTypeEP10InboundPkt
libqtelegram-ae.so.1:_ZN12ContactFoundC2EP10InboundPkt
libqtelegram-ae.so.1:_ZN12ContactFoundD0Ev
libqtelegram-ae.so.1:_ZN12ContactFoundD1Ev
libqtelegram-ae.so.1:_ZN12ContactFoundD2Ev
libqtelegram-ae.so.1:_ZN12ContactFoundeqERKS_
libqtelegram-ae.so.1:_ZN12ContactsLink12setClassTypeENS_16ContactsLinkTypeE
libqtelegram-ae.so.1:_ZN12ContactsLink14setForeignLinkERK11ContactLink
libqtelegram-ae.so.1:_ZN12ContactsLink5fetchEP10InboundPkt
libqtelegram-ae.so.1:_ZN12ContactsLink7setUserERK4User
libqtelegram-ae.so.1:_ZN12ContactsLink9setMyLinkERK11ContactLink
libqtelegram-ae.so.1:_ZN12ContactsLinkC1ENS_16ContactsLinkTypeEP10InboundPkt
libqtelegram-ae.so.1:_ZN12ContactsLinkC1EP10InboundPkt
libqtelegram-ae.so.1:_ZN12ContactsLinkC2ENS_16ContactsLinkTypeEP10InboundPkt
libqtelegram-ae.so.1:_ZN12ContactsLinkC2EP10InboundPkt
libqtelegram-ae.so.1:_ZN12ContactsLinkD0Ev
libqtelegram-ae.so.1:_ZN12ContactsLinkD1Ev
libqtelegram-ae.so.1:_ZN12ContactsLinkD2Ev
libqtelegram-ae.so.1:_ZN12ContactsLinkeqERKS_
libqtelegram-ae.so.1:_ZN12DownloadFile11appendBytesERK10QByteArray
libqtelegram-ae.so.1:_ZN12DownloadFile11qt_metacallEN11QMetaObject4CallEiPPv
libqtelegram-ae.so.1:_ZN12DownloadFile11qt_metacastEPKc
libqtelegram-ae.so.1:_ZN12DownloadFile15incrementPartIdEv
libqtelegram-ae.so.1:_ZN12DownloadFile2ivEv
libqtelegram-ae.so.1:_ZN12DownloadFile3keyEv
libqtelegram-ae.so.1:_ZN12DownloadFile8setMtimeEi
libqtelegram-ae.so.1:_ZN12DownloadFile9setOffsetEi
libqtelegram-ae.so.1:_ZN12DownloadFileC1EP7Session17InputFileLocationiP7QObject
libqtelegram-ae.so.1:_ZN12DownloadFileC2EP7Session17InputFileLocationiP7QObject
libqtelegram-ae.so.1:_ZN12DownloadFileD0Ev
libqtelegram-ae.so.1:_ZN12DownloadFileD1Ev
libqtelegram-ae.so.1:_ZN12DownloadFileD2Ev
libqtelegram-ae.so.1:_ZN12FileLocation10setLocalIdEi
libqtelegram-ae.so.1:_ZN12FileLocation11setVolumeIdEx
libqtelegram-ae.so.1:_ZN12FileLocation12setClassTypeENS_16FileLocationTypeE
libqtelegram-ae.so.1:_ZN12FileLocation5fetchEP10InboundPkt
libqtelegram-ae.so.1:_ZN12FileLocation7setDcIdEi
libqtelegram-ae.so.1:_ZN12FileLocation9setSecretEx
libqtelegram-ae.so.1:_ZN12FileLocationC1ENS_16FileLocationTypeEP10InboundPkt
libqtelegram-ae.so.1:_ZN12FileLocationC1EP10InboundPkt
libqtelegram-ae.so.1:_ZN12FileLocationC2ENS_16FileLocationTypeEP10InboundPkt
libqtelegram-ae.so.1:_ZN12FileLocationC2EP10InboundPkt
libqtelegram-ae.so.1:_ZN12FileLocationD0Ev
libqtelegram-ae.so.1:_ZN12FileLocationD1Ev
libqtelegram-ae.so.1:_ZN12FileLocationD2Ev
libqtelegram-ae.so.1:_ZN12FileLocationeqERKS_
libqtelegram-ae.so.1:_ZN12InputContact11setClientIdEx
libqtelegram-ae.so.1:_ZN12InputContact11setLastNameERK7QString
libqtelegram-ae.so.1:_ZN12InputContact12setClassTypeENS_16InputContactTypeE
libqtelegram-ae.so.1:_ZN12InputContact12setFirstNameERK7QString
libqtelegram-ae.so.1:_ZN12InputContact5fetchEP10InboundPkt
libqtelegram-ae.so.1:_ZN12InputContact8setPhoneERK7QString
libqtelegram-ae.so.1:_ZN12InputContactC1ENS_16InputContactTypeEP10InboundPkt
libqtelegram-ae.so.1:_ZN12InputContactC1EP10InboundPkt
libqtelegram-ae.so.1:_ZN12InputContactC2ENS_16InputContactTypeEP10InboundPkt
libqtelegram-ae.so.1:_ZN12InputContactC2EP10InboundPkt
libqtelegram-ae.so.1:_ZN12InputContactD0Ev
libqtelegram-ae.so.1:_ZN12InputContactD1Ev
libqtelegram-ae.so.1:_ZN12InputContactD2Ev
libqtelegram-ae.so.1:_ZN12InputContacteqERKS_
libqtelegram-ae.so.1:_ZN12InputGeoChat12setClassTypeENS_16InputGeoChatTypeE
libqtelegram-ae.so.1:_ZN12InputGeoChat13setAccessHashEx
libqtelegram-ae.so.1:_ZN12InputGeoChat5fetchEP10InboundPkt
libqtelegram-ae.so.1:_ZN12InputGeoChat9setChatIdEi
libqtelegram-ae.so.1:_ZN12InputGeoChatC1ENS_16InputGeoChatTypeEP10InboundPkt
libqtelegram-ae.so.1:_ZN12InputGeoChatC1EP10InboundPkt
libqtelegram-ae.so.1:_ZN12InputGeoChatC2ENS_16InputGeoChatTypeEP10InboundPkt
libqtelegram-ae.so.1:_ZN12InputGeoChatC2EP10InboundPkt
libqtelegram-ae.so.1:_ZN12InputGeoChatD0Ev
libqtelegram-ae.so.1:_ZN12InputGeoChatD1Ev
libqtelegram-ae.so.1:_ZN12InputGeoChatD2Ev
libqtelegram-ae.so.1:_ZN12InputGeoChateqERKS_
libqtelegram-ae.so.1:_ZN12MessageMedia10setAddressERK7QString
libqtelegram-ae.so.1:_ZN12MessageMedia10setCaptionERK7QString
libqtelegram-ae.so.1:_ZN12MessageMedia10setVenueIdERK7QString
libqtelegram-ae.so.1:_ZN12MessageMedia10setWebpageERK7WebPage
libqtelegram-ae.so.1:_ZN12MessageMedia11setDocumentERK8Document
libqtelegram-ae.so.1:_ZN12MessageMedia11setLastNameERK7QString
libqtelegram-ae.so.1:_ZN12MessageMedia11setProviderERK7QString
libqtelegram-ae.so.1:_ZN12MessageMedia12setClassTypeENS_16MessageMediaTypeE
libqtelegram-ae.so.1:_ZN12MessageMedia12setFirstNameERK7QString
libqtelegram-ae.so.1:_ZN12MessageMedia14setPhoneNumberERK7QString
libqtelegram-ae.so.1:_ZN12MessageMedia5fetchEP10InboundPkt
libqtelegram-ae.so.1:_ZN12MessageMedia6setGeoERK8GeoPoint
libqtelegram-ae.so.1:_ZN12MessageMedia8setAudioERK5Audio
libqtelegram-ae.so.1:_ZN12MessageMedia8setPhotoERK5Photo
libqtelegram-ae.so.1:_ZN12MessageMedia8setTitleERK7QString
libqtelegram-ae.so.1:_ZN12MessageMedia8setVideoERK5Video
libqtelegram-ae.so.1:_ZN12MessageMedia9setUserIdEi
libqtelegram-ae.so.1:_ZN12MessageMediaC1ENS_16MessageMediaTypeEP10InboundPkt
libqtelegram-ae.so.1:_ZN12MessageMediaC1EP10InboundPkt
libqtelegram-ae.so.1:_ZN12MessageMediaC2ENS_16MessageMediaTypeEP10InboundPkt
libqtelegram-ae.so.1:_ZN12MessageMediaC2EP10InboundPkt
libqtelegram-ae.so.1:_ZN12MessageMediaD0Ev
libqtelegram-ae.so.1:_ZN12MessageMediaD1Ev
libqtelegram-ae.so.1:_ZN12MessageMediaD2Ev
libqtelegram-ae.so.1:_ZN12MessageMediaeqERKS_
libqtelegram-ae.so.1:_ZN12PhotosPhotos12setClassTypeENS_16PhotosPhotosTypeE
libqtelegram-ae.so.1:_ZN12PhotosPhotos5fetchEP10InboundPkt
libqtelegram-ae.so.1:_ZN12PhotosPhotos8setCountEi
libqtelegram-ae.so.1:_ZN12PhotosPhotos8setUsersERK5QListI4UserE
libqtelegram-ae.so.1:_ZN12PhotosPhotos9setPhotosERK5QListI5PhotoE
libqtelegram-ae.so.1:_ZN12PhotosPhotosC1ENS_16PhotosPhotosTypeEP10InboundPkt
libqtelegram-ae.so.1:_ZN12PhotosPhotosC1EP10InboundPkt
libqtelegram-ae.so.1:_ZN12PhotosPhotosC2ENS_16PhotosPhotosTypeEP10InboundPkt
libqtelegram-ae.so.1:_ZN12PhotosPhotosC2EP10InboundPkt
libqtelegram-ae.so.1:_ZN12PhotosPhotosD0Ev
libqtelegram-ae.so.1:_ZN12PhotosPhotosD1Ev
libqtelegram-ae.so.1:_ZN12PhotosPhotosD2Ev
libqtelegram-ae.so.1:_ZN12PhotosPhotoseqERKS_
libqtelegram-ae.so.1:_ZN12UpdatesState12setClassTypeENS_16UpdatesStateTypeE
libqtelegram-ae.so.1:_ZN12UpdatesState14setUnreadCountEi
libqtelegram-ae.so.1:_ZN12UpdatesState5fetchEP10InboundPkt
libqtelegram-ae.so.1:_ZN12UpdatesState6setPtsEi
libqtelegram-ae.so.1:_ZN12UpdatesState6setQtsEi
libqtelegram-ae.so.1:_ZN12UpdatesState6setSeqEi
libqtelegram-ae.so.1:_ZN12UpdatesState7setDateEi
libqtelegram-ae.so.1:_ZN12UpdatesStateC1ENS_16UpdatesStateTypeEP10InboundPkt
libqtelegram-ae.so.1:_ZN12UpdatesStateC1EP10InboundPkt
libqtelegram-ae.so.1:_ZN12UpdatesStateC2ENS_16UpdatesStateTypeEP10InboundPkt
libqtelegram-ae.so.1:_ZN12UpdatesStateC2EP10InboundPkt
libqtelegram-ae.so.1:_ZN12UpdatesStateD0Ev
libqtelegram-ae.so.1:_ZN12UpdatesStateD1Ev
libqtelegram-ae.so.1:_ZN12UpdatesStateD2Ev
libqtelegram-ae.so.1:_ZN12UpdatesStateeqERKS_
libqtelegram-ae.so.1:_ZN13Authorization10setAppNameERK7QString
libqtelegram-ae.so.1:_ZN13Authorization10setCountryERK7QString
libqtelegram-ae.so.1:_ZN13Authorization11setPlatformERK7QString
libqtelegram-ae.so.1:_ZN13Authorization12setClassTypeENS_17AuthorizationTypeE
libqtelegram-ae.so.1:_ZN13Authorization13setAppVersionERK7QString
libqtelegram-ae.so.1:_ZN13Authorization13setDateActiveEi
libqtelegram-ae.so.1:_ZN13Authorization14setDateCreatedEi
libqtelegram-ae.so.1:_ZN13Authorization14setDeviceModelERK7QString
libqtelegram-ae.so.1:_ZN13Authorization16setSystemVersionERK7QString
libqtelegram-ae.so.1:_ZN13Authorization5fetchEP10InboundPkt
libqtelegram-ae.so.1:_ZN13Authorization5setIpERK7QString
libqtelegram-ae.so.1:_ZN13Authorization7setHashEx
libqtelegram-ae.so.1:_ZN13Authorization8setApiIdEi
libqtelegram-ae.so.1:_ZN13Authorization8setFlagsEi
libqtelegram-ae.so.1:_ZN13Authorization9setRegionERK7QString
libqtelegram-ae.so.1:_ZN13AuthorizationC1ENS_17AuthorizationTypeEP10InboundPkt
libqtelegram-ae.so.1:_ZN13AuthorizationC1EP10InboundPkt
libqtelegram-ae.so.1:_ZN13AuthorizationC2ENS_17AuthorizationTypeEP10InboundPkt
libqtelegram-ae.so.1:_ZN13AuthorizationC2EP10InboundPkt
libqtelegram-ae.so.1:_ZN13AuthorizationD0Ev
libqtelegram-ae.so.1:_ZN13AuthorizationD1Ev
libqtelegram-ae.so.1:_ZN13AuthorizationD2Ev
libqtelegram-ae.so.1:_ZN13AuthorizationeqERKS_
libqtelegram-ae.so.1:_ZN13ContactStatus12setClassTypeENS_17ContactStatusTypeE
libqtelegram-ae.so.1:_ZN13ContactStatus5fetchEP10InboundPkt
libqtelegram-ae.so.1:_ZN13ContactStatus9setStatusERK10UserStatus
libqtelegram-ae.so.1:_ZN13ContactStatus9setUserIdEi
libqtelegram-ae.so.1:_ZN13ContactStatusC1ENS_17ContactStatusTypeEP10InboundPkt
libqtelegram-ae.so.1:_ZN13ContactStatusC1EP10InboundPkt
libqtelegram-ae.so.1:_ZN13ContactStatusC2ENS_17ContactStatusTypeEP10InboundPkt
libqtelegram-ae.so.1:_ZN13ContactStatusC2EP10InboundPkt
libqtelegram-ae.so.1:_ZN13ContactStatusD0Ev
libqtelegram-ae.so.1:_ZN13ContactStatusD1Ev
libqtelegram-ae.so.1:_ZN13ContactStatusD2Ev
libqtelegram-ae.so.1:_ZN13ContactStatuseqERKS_
libqtelegram-ae.so.1:_ZN13ContactsFound10setResultsERK5QListI12ContactFoundE
libqtelegram-ae.so.1:_ZN13ContactsFound12setClassTypeENS_17ContactsFoundTypeE
libqtelegram-ae.so.1:_ZN13ContactsFound5fetchEP10InboundPkt
libqtelegram-ae.so.1:_ZN13ContactsFound8setUsersERK5QListI4UserE
libqtelegram-ae.so.1:_ZN13ContactsFoundC1ENS_17ContactsFoundTypeEP10InboundPkt
libqtelegram-ae.so.1:_ZN13ContactsFoundC1EP10InboundPkt
libqtelegram-ae.so.1:_ZN13ContactsFoundC2ENS_17ContactsFoundTypeEP10InboundPkt
libqtelegram-ae.so.1:_ZN13ContactsFoundC2EP10InboundPkt
libqtelegram-ae.so.1:_ZN13ContactsFoundD0Ev
libqtelegram-ae.so.1:_ZN13ContactsFoundD1Ev
libqtelegram-ae.so.1:_ZN13ContactsFoundD2Ev
libqtelegram-ae.so.1:_ZN13ContactsFoundeqERKS_
libqtelegram-ae.so.1:_ZN13EncryptedChat10setAdminIdEi
libqtelegram-ae.so.1:_ZN13EncryptedChat12setClassTypeENS_17EncryptedChatTypeE
libqtelegram-ae.so.1:_ZN13EncryptedChat13setAccessHashEx
libqtelegram-ae.so.1:_ZN13EncryptedChat16setParticipantIdEi
libqtelegram-ae.so.1:_ZN13EncryptedChat17setKeyFingerprintEx
libqtelegram-ae.so.1:_ZN13EncryptedChat5fetchEP10InboundPkt
libqtelegram-ae.so.1:_ZN13EncryptedChat5setGAERK10QByteArray
libqtelegram-ae.so.1:_ZN13EncryptedChat5setIdEi
libqtelegram-ae.so.1:_ZN13EncryptedChat7setDateEi
libqtelegram-ae.so.1:_ZN13EncryptedChat8setGAOrBERK10QByteArray
libqtelegram-ae.so.1:_ZN13EncryptedChatC1ENS_17EncryptedChatTypeEP10InboundPkt
libqtelegram-ae.so.1:_ZN13EncryptedChatC1EP10InboundPkt
libqtelegram-ae.so.1:_ZN13EncryptedChatC2ENS_17EncryptedChatTypeEP10InboundPkt
libqtelegram-ae.so.1:_ZN13EncryptedChatC2EP10InboundPkt
libqtelegram-ae.so.1:_ZN13EncryptedChatD0Ev
libqtelegram-ae.so.1:_ZN13EncryptedChatD1Ev
libqtelegram-ae.so.1:_ZN13EncryptedChatD2Ev
libqtelegram-ae.so.1:_ZN13EncryptedChateqERKS_
libqtelegram-ae.so.1:_ZN13EncryptedFile12setClassTypeENS_17EncryptedFileTypeE
libqtelegram-ae.so.1:_ZN13EncryptedFile13setAccessHashEx
libqtelegram-ae.so.1:_ZN13EncryptedFile17setKeyFingerprintEi
libqtelegram-ae.so.1:_ZN13EncryptedFile5fetchEP10InboundPkt
libqtelegram-ae.so.1:_ZN13EncryptedFile5setIdEx
libqtelegram-ae.so.1:_ZN13EncryptedFile7setDcIdEi
libqtelegram-ae.so.1:_ZN13EncryptedFile7setSizeEi
libqtelegram-ae.so.1:_ZN13EncryptedFileC1ENS_17EncryptedFileTypeEP10InboundPkt
libqtelegram-ae.so.1:_ZN13EncryptedFileC1EP10InboundPkt
libqtelegram-ae.so.1:_ZN13EncryptedFileC2ENS_17EncryptedFileTypeEP10InboundPkt
libqtelegram-ae.so.1:_ZN13EncryptedFileC2EP10InboundPkt
libqtelegram-ae.so.1:_ZN13EncryptedFileD0Ev
libqtelegram-ae.so.1:_ZN13EncryptedFileD1Ev
libqtelegram-ae.so.1:_ZN13EncryptedFileD2Ev
libqtelegram-ae.so.1:_ZN13EncryptedFileeqERKS_
libqtelegram-ae.so.1:_ZN13HelpAppUpdate11setCriticalEb
libqtelegram-ae.so.1:_ZN13HelpAppUpdate12setClassTypeENS_17HelpAppUpdateTypeE
libqtelegram-ae.so.1:_ZN13HelpAppUpdate5fetchEP10InboundPkt
libqtelegram-ae.so.1:_ZN13HelpAppUpdate5setIdEi
libqtelegram-ae.so.1:_ZN13HelpAppUpdate6setUrlERK7QString
libqtelegram-ae.so.1:_ZN13HelpAppUpdate7setTextERK7QString
libqtelegram-ae.so.1:_ZN13HelpAppUpdateC1ENS_17HelpAppUpdateTypeEP10InboundPkt
libqtelegram-ae.so.1:_ZN13HelpAppUpdateC1EP10InboundPkt
libqtelegram-ae.so.1:_ZN13HelpAppUpdateC2ENS_17HelpAppUpdateTypeEP10InboundPkt
libqtelegram-ae.so.1:_ZN13HelpAppUpdateC2EP10InboundPkt
libqtelegram-ae.so.1:_ZN13HelpAppUpdateD0Ev
libqtelegram-ae.so.1:_ZN13HelpAppUpdateD1Ev
libqtelegram-ae.so.1:_ZN13HelpAppUpdateD2Ev
libqtelegram-ae.so.1:_ZN13HelpAppUpdateeqERKS_
libqtelegram-ae.so.1:_ZN13InputAppEvent12setClassTypeENS_17InputAppEventTypeE
libqtelegram-ae.so.1:_ZN13InputAppEvent5fetchEP10InboundPkt
libqtelegram-ae.so.1:_ZN13InputAppEvent7setDataERK7QString
libqtelegram-ae.so.1:_ZN13InputAppEvent7setPeerEx
libqtelegram-ae.so.1:_ZN13InputAppEvent7setTimeEd
libqtelegram-ae.so.1:_ZN13InputAppEvent7setTypeERK7QString
libqtelegram-ae.so.1:_ZN13InputAppEventC1ENS_17InputAppEventTypeEP10InboundPkt
libqtelegram-ae.so.1:_ZN13InputAppEventC1EP10InboundPkt
libqtelegram-ae.so.1:_ZN13InputAppEventC2ENS_17InputAppEventTypeEP10InboundPkt
libqtelegram-ae.so.1:_ZN13InputAppEventC2EP10InboundPkt
libqtelegram-ae.so.1:_ZN13InputAppEventD0Ev
libqtelegram-ae.so.1:_ZN13InputAppEventD1Ev
libqtelegram-ae.so.1:_ZN13InputAppEventD2Ev
libqtelegram-ae.so.1:_ZN13InputAppEventeqERKS_
libqtelegram-ae.so.1:_ZN13InputDocument12setClassTypeENS_17InputDocumentTypeE
libqtelegram-ae.so.1:_ZN13InputDocument13setAccessHashEx
libqtelegram-ae.so.1:_ZN13InputDocument5fetchEP10InboundPkt
libqtelegram-ae.so.1:_ZN13InputDocument5setIdEx
libqtelegram-ae.so.1:_ZN13InputDocumentC1ENS_17InputDocumentTypeEP10InboundPkt
libqtelegram-ae.so.1:_ZN13InputDocumentC1EP10InboundPkt
libqtelegram-ae.so.1:_ZN13InputDocumentC2ENS_17InputDocumentTypeEP10InboundPkt
libqtelegram-ae.so.1:_ZN13InputDocumentC2EP10InboundPkt
libqtelegram-ae.so.1:_ZN13InputDocumentD0Ev
libqtelegram-ae.so.1:_ZN13InputDocumentD1Ev
libqtelegram-ae.so.1:_ZN13InputDocumentD2Ev
libqtelegram-ae.so.1:_ZN13InputDocumenteqERKS_
libqtelegram-ae.so.1:_ZN13InputGeoPoint12setClassTypeENS_17InputGeoPointTypeE
libqtelegram-ae.so.1:_ZN13InputGeoPoint12setLongValueEd
libqtelegram-ae.so.1:_ZN13InputGeoPoint5fetchEP10InboundPkt
libqtelegram-ae.so.1:_ZN13InputGeoPoint6setLatEd
libqtelegram-ae.so.1:_ZN13InputGeoPointC1ENS_17InputGeoPointTypeEP10InboundPkt
libqtelegram-ae.so.1:_ZN13InputGeoPointC1EP10InboundPkt
libqtelegram-ae.so.1:_ZN13InputGeoPointC2ENS_17InputGeoPointTypeEP10InboundPkt
libqtelegram-ae.so.1:_ZN13InputGeoPointC2EP10InboundPkt
libqtelegram-ae.so.1:_ZN13InputGeoPointD0Ev
libqtelegram-ae.so.1:_ZN13InputGeoPointD1Ev
libqtelegram-ae.so.1:_ZN13InputGeoPointD2Ev
libqtelegram-ae.so.1:_ZN13InputGeoPointeqERKS_
libqtelegram-ae.so.1:_ZN13MessageAction10setAddressERK7QString
libqtelegram-ae.so.1:_ZN13MessageAction12setClassTypeENS_17MessageActionTypeE
libqtelegram-ae.so.1:_ZN13MessageAction12setInviterIdEi
libqtelegram-ae.so.1:_ZN13MessageAction5fetchEP10InboundPkt
libqtelegram-ae.so.1:_ZN13MessageAction8setPhotoERK5Photo
libqtelegram-ae.so.1:_ZN13MessageAction8setTitleERK7QString
libqtelegram-ae.so.1:_ZN13MessageAction8setUsersERK5QListIiE
libqtelegram-ae.so.1:_ZN13MessageAction9setUserIdEi
libqtelegram-ae.so.1:_ZN13MessageActionC1ENS_17MessageActionTypeEP10InboundPkt
libqtelegram-ae.so.1:_ZN13MessageActionC1EP10InboundPkt
libqtelegram-ae.so.1:_ZN13MessageActionC2ENS_17MessageActionTypeEP10InboundPkt
libqtelegram-ae.so.1:_ZN13MessageActionC2EP10InboundPkt
libqtelegram-ae.so.1:_ZN13MessageActionD0Ev
libqtelegram-ae.so.1:_ZN13MessageActionD1Ev
libqtelegram-ae.so.1:_ZN13MessageActionD2Ev
libqtelegram-ae.so.1:_ZN13MessageActioneqERKS_
libqtelegram-ae.so.1:_ZN13MessagesChats12setClassTypeENS_17MessagesChatsTypeE
libqtelegram-ae.so.1:_ZN13MessagesChats5fetchEP10InboundPkt
libqtelegram-ae.so.1:_ZN13MessagesChats8setChatsERK5QListI4ChatE
libqtelegram-ae.so.1:_ZN13MessagesChatsC1ENS_17MessagesChatsTypeEP10InboundPkt
libqtelegram-ae.so.1:_ZN13MessagesChatsC1EP10InboundPkt
libqtelegram-ae.so.1:_ZN13MessagesChatsC2ENS_17MessagesChatsTypeEP10InboundPkt
libqtelegram-ae.so.1:_ZN13MessagesChatsC2EP10InboundPkt
libqtelegram-ae.so.1:_ZN13MessagesChatsD0Ev
libqtelegram-ae.so.1:_ZN13MessagesChatsD1Ev
libqtelegram-ae.so.1:_ZN13MessagesChatsD2Ev
libqtelegram-ae.so.1:_ZN13MessagesChatseqERKS_
libqtelegram-ae.so.1:_ZN14AccountDaysTTL12setClassTypeENS_18AccountDaysTTLTypeE
libqtelegram-ae.so.1:_ZN14AccountDaysTTL5fetchEP10InboundPkt
libqtelegram-ae.so.1:_ZN14AccountDaysTTL7setDaysEi
libqtelegram-ae.so.1:_ZN14AccountDaysTTLC1ENS_18AccountDaysTTLTypeEP10InboundPkt
libqtelegram-ae.so.1:_ZN14AccountDaysTTLC1EP10InboundPkt
libqtelegram-ae.so.1:_ZN14AccountDaysTTLC2ENS_18AccountDaysTTLTypeEP10InboundPkt
libqtelegram-ae.so.1:_ZN14AccountDaysTTLC2EP10InboundPkt
libqtelegram-ae.so.1:_ZN14AccountDaysTTLD0Ev
libqtelegram-ae.so.1:_ZN14AccountDaysTTLD1Ev
libqtelegram-ae.so.1:_ZN14AccountDaysTTLD2Ev
libqtelegram-ae.so.1:_ZN14AccountDaysTTLeqERKS_
libqtelegram-ae.so.1:_ZN14ContactBlocked12setClassTypeENS_18ContactBlockedTypeE
libqtelegram-ae.so.1:_ZN14ContactBlocked5fetchEP10InboundPkt
libqtelegram-ae.so.1:_ZN14ContactBlocked7setDateEi
libqtelegram-ae.so.1:_ZN14ContactBlocked9setUserIdEi
libqtelegram-ae.so.1:_ZN14ContactBlockedC1ENS_18ContactBlockedTypeEP10InboundPkt
libqtelegram-ae.so.1:_ZN14ContactBlockedC1EP10InboundPkt
libqtelegram-ae.so.1:_ZN14ContactBlockedC2ENS_18ContactBlockedTypeEP10InboundPkt
libqtelegram-ae.so.1:_ZN14ContactBlockedC2EP10InboundPkt
libqtelegram-ae.so.1:_ZN14ContactBlockedD0Ev
libqtelegram-ae.so.1:_ZN14ContactBlockedD1Ev
libqtelegram-ae.so.1:_ZN14ContactBlockedD2Ev
libqtelegram-ae.so.1:_ZN14ContactBlockedeqERKS_
libqtelegram-ae.so.1:_ZN14GeoChatMessage10setMessageERK7QString
libqtelegram-ae.so.1:_ZN14GeoChatMessage12setClassTypeENS_18GeoChatMessageTypeE
libqtelegram-ae.so.1:_ZN14GeoChatMessage5fetchEP10InboundPkt
libqtelegram-ae.so.1:_ZN14GeoChatMessage5setIdEi
libqtelegram-ae.so.1:_ZN14GeoChatMessage7setDateEi
libqtelegram-ae.so.1:_ZN14GeoChatMessage8setMediaERK12MessageMedia
libqtelegram-ae.so.1:_ZN14GeoChatMessage9setActionERK13MessageAction
libqtelegram-ae.so.1:_ZN14GeoChatMessage9setChatIdEi
libqtelegram-ae.so.1:_ZN14GeoChatMessage9setFromIdEi
libqtelegram-ae.so.1:_ZN14GeoChatMessageC1ENS_18GeoChatMessageTypeEP10InboundPkt
libqtelegram-ae.so.1:_ZN14GeoChatMessageC1EP10InboundPkt
libqtelegram-ae.so.1:_ZN14GeoChatMessageC2ENS_18GeoChatMessageTypeEP10InboundPkt
libqtelegram-ae.so.1:_ZN14GeoChatMessageC2EP10InboundPkt
libqtelegram-ae.so.1:_ZN14GeoChatMessageD0Ev
libqtelegram-ae.so.1:_ZN14GeoChatMessageD1Ev
libqtelegram-ae.so.1:_ZN14GeoChatMessageD2Ev
libqtelegram-ae.so.1:_ZN14GeoChatMessageeqERKS_
libqtelegram-ae.so.1:_ZN14HelpInviteText10setMessageERK7QString
libqtelegram-ae.so.1:_ZN14HelpInviteText12setClassTypeENS_18HelpInviteTextTypeE
libqtelegram-ae.so.1:_ZN14HelpInviteText5fetchEP10InboundPkt
libqtelegram-ae.so.1:_ZN14HelpInviteTextC1ENS_18HelpInviteTextTypeEP10InboundPkt
libqtelegram-ae.so.1:_ZN14HelpInviteTextC1EP10InboundPkt
libqtelegram-ae.so.1:_ZN14HelpInviteTextC2ENS_18HelpInviteTextTypeEP10InboundPkt
libqtelegram-ae.so.1:_ZN14HelpInviteTextC2EP10InboundPkt
libqtelegram-ae.so.1:_ZN14HelpInviteTextD0Ev
libqtelegram-ae.so.1:_ZN14HelpInviteTextD1Ev
libqtelegram-ae.so.1:_ZN14HelpInviteTextD2Ev
libqtelegram-ae.so.1:_ZN14HelpInviteTexteqERKS_
libqtelegram-ae.so.1:_ZN14InputChatPhoto12setClassTypeENS_18InputChatPhotoTypeE
libqtelegram-ae.so.1:_ZN14InputChatPhoto5fetchEP10InboundPkt
libqtelegram-ae.so.1:_ZN14InputChatPhoto5setIdERK10InputPhoto
libqtelegram-ae.so.1:_ZN14InputChatPhoto7setCropERK14InputPhotoCrop
libqtelegram-ae.so.1:_ZN14InputChatPhoto7setFileERK9InputFile
libqtelegram-ae.so.1:_ZN14InputChatPhotoC1ENS_18InputChatPhotoTypeEP10InboundPkt
libqtelegram-ae.so.1:_ZN14InputChatPhotoC1EP10InboundPkt
libqtelegram-ae.so.1:_ZN14InputChatPhotoC2ENS_18InputChatPhotoTypeEP10InboundPkt
libqtelegram-ae.so.1:_ZN14InputChatPhotoC2EP10InboundPkt
libqtelegram-ae.so.1:_ZN14InputChatPhotoD0Ev
libqtelegram-ae.so.1:_ZN14InputChatPhotoD1Ev
libqtelegram-ae.so.1:_ZN14InputChatPhotoD2Ev
libqtelegram-ae.so.1:_ZN14InputChatPhotoeqERKS_
libqtelegram-ae.so.1:_ZN14InputPhotoCrop10setCropTopEd
libqtelegram-ae.so.1:_ZN14InputPhotoCrop11setCropLeftEd
libqtelegram-ae.so.1:_ZN14InputPhotoCrop12setClassTypeENS_18InputPhotoCropTypeE
libqtelegram-ae.so.1:_ZN14InputPhotoCrop12setCropWidthEd
libqtelegram-ae.so.1:_ZN14InputPhotoCrop5fetchEP10InboundPkt
libqtelegram-ae.so.1:_ZN14InputPhotoCropC1ENS_18InputPhotoCropTypeEP10InboundPkt
libqtelegram-ae.so.1:_ZN14InputPhotoCropC1EP10InboundPkt
libqtelegram-ae.so.1:_ZN14InputPhotoCropC2ENS_18InputPhotoCropTypeEP10InboundPkt
libqtelegram-ae.so.1:_ZN14InputPhotoCropC2EP10InboundPkt
libqtelegram-ae.so.1:_ZN14InputPhotoCropD0Ev
libqtelegram-ae.so.1:_ZN14InputPhotoCropD1Ev
libqtelegram-ae.so.1:_ZN14InputPhotoCropD2Ev
libqtelegram-ae.so.1:_ZN14InputPhotoCropeqERKS_
libqtelegram-ae.so.1:_ZN14MessagesFilter12setClassTypeENS_18MessagesFilterTypeE
libqtelegram-ae.so.1:_ZN14MessagesFilter5fetchEP10InboundPkt
libqtelegram-ae.so.1:_ZN14MessagesFilterC1ENS_18MessagesFilterTypeEP10InboundPkt
libqtelegram-ae.so.1:_ZN14MessagesFilterC1EP10InboundPkt
libqtelegram-ae.so.1:_ZN14MessagesFilterC2ENS_18MessagesFilterTypeEP10InboundPkt
libqtelegram-ae.so.1:_ZN14MessagesFilterC2EP10InboundPkt
libqtelegram-ae.so.1:_ZN14MessagesFilterD0Ev
libqtelegram-ae.so.1:_ZN14MessagesFilterD1Ev
libqtelegram-ae.so.1:_ZN14MessagesFilterD2Ev
libqtelegram-ae.so.1:_ZN14MessagesFiltereqERKS_
libqtelegram-ae.so.1:_ZN14SessionManager11fileSessionEP2DC
libqtelegram-ae.so.1:_ZN14SessionManager11mainSessionEv
libqtelegram-ae.so.1:_ZN14SessionManager11qt_metacallEN11QMetaObject4CallEiPPv
libqtelegram-ae.so.1:_ZN14SessionManager11qt_metacastEPKc
libqtelegram-ae.so.1:_ZN14SessionManager13createSessionEP2DC
libqtelegram-ae.so.1:_ZN14SessionManager14setMainSessionEP7Session
libqtelegram-ae.so.1:_ZN14SessionManager15onSessionClosedEx
libqtelegram-ae.so.1:_ZN14SessionManager16mainSessionReadyEv
libqtelegram-ae.so.1:_ZN14SessionManager17createFileSessionEP2DC
libqtelegram-ae.so.1:_ZN14SessionManager17mainSessionClosedEv
libqtelegram-ae.so.1:_ZN14SessionManager17onSessionReleasedEx
libqtelegram-ae.so.1:_ZN14SessionManager20mainSessionDcChangedEP2DC
libqtelegram-ae.so.1:_ZN14SessionManager21changeMainSessionToDcEP2DC
libqtelegram-ae.so.1:_ZN14SessionManager21createMainSessionToDcEP2DC
libqtelegram-ae.so.1:_ZN14SessionManagerC1EP7SessionP8SettingsP11CryptoUtilsP7QObject
libqtelegram-ae.so.1:_ZN14SessionManagerC2EP7SessionP8SettingsP11CryptoUtilsP7QObject
libqtelegram-ae.so.1:_ZN14SessionManagerD0Ev
libqtelegram-ae.so.1:_ZN14SessionManagerD1Ev
libqtelegram-ae.so.1:_ZN14SessionManagerD2Ev
libqtelegram-ae.so.1:_ZN15AccountPassword10setNewSaltERK10QByteArray
libqtelegram-ae.so.1:_ZN15AccountPassword12setClassTypeENS_19AccountPasswordTypeE
libqtelegram-ae.so.1:_ZN15AccountPassword14setCurrentSaltERK10QByteArray
libqtelegram-ae.so.1:_ZN15AccountPassword14setHasRecoveryEb
libqtelegram-ae.so.1:_ZN15AccountPassword26setEmailUnconfirmedPatternERK7QString
libqtelegram-ae.so.1:_ZN15AccountPassword5fetchEP10InboundPkt
libqtelegram-ae.so.1:_ZN15AccountPassword7setHintERK7QString
libqtelegram-ae.so.1:_ZN15AccountPasswordC1ENS_19AccountPasswordTypeEP10InboundPkt
libqtelegram-ae.so.1:_ZN15AccountPasswordC1EP10InboundPkt
libqtelegram-ae.so.1:_ZN15AccountPasswordC2ENS_19AccountPasswordTypeEP10InboundPkt
libqtelegram-ae.so.1:_ZN15AccountPasswordC2EP10InboundPkt
libqtelegram-ae.so.1:_ZN15AccountPasswordD0Ev
libqtelegram-ae.so.1:_ZN15AccountPasswordD1Ev
libqtelegram-ae.so.1:_ZN15AccountPasswordD2Ev
libqtelegram-ae.so.1:_ZN15AccountPasswordeqERKS_
libqtelegram-ae.so.1:_ZN15ChatParticipant12setClassTypeENS_19ChatParticipantTypeE
libqtelegram-ae.so.1:_ZN15ChatParticipant12setInviterIdEi
libqtelegram-ae.so.1:_ZN15ChatParticipant5fetchEP10InboundPkt
libqtelegram-ae.so.1:_ZN15ChatParticipant7setDateEi
libqtelegram-ae.so.1:_ZN15ChatParticipant9setUserIdEi
libqtelegram-ae.so.1:_ZN15ChatParticipantC1ENS_19ChatParticipantTypeEP10InboundPkt
libqtelegram-ae.so.1:_ZN15ChatParticipantC1EP10InboundPkt
libqtelegram-ae.so.1:_ZN15ChatParticipantC2ENS_19ChatParticipantTypeEP10InboundPkt
libqtelegram-ae.so.1:_ZN15ChatParticipantC2EP10InboundPkt
libqtelegram-ae.so.1:_ZN15ChatParticipantD0Ev
libqtelegram-ae.so.1:_ZN15ChatParticipantD1Ev
libqtelegram-ae.so.1:_ZN15ChatParticipantD2Ev
libqtelegram-ae.so.1:_ZN15ChatParticipanteqERKS_
libqtelegram-ae.so.1:_ZN15ContactsBlocked10setBlockedERK5QListI14ContactBlockedE
libqtelegram-ae.so.1:_ZN15ContactsBlocked12setClassTypeENS_19ContactsBlockedTypeE
libqtelegram-ae.so.1:_ZN15ContactsBlocked5fetchEP10InboundPkt
libqtelegram-ae.so.1:_ZN15ContactsBlocked8setCountEi
libqtelegram-ae.so.1:_ZN15ContactsBlocked8setUsersERK5QListI4UserE
libqtelegram-ae.so.1:_ZN15ContactsBlockedC1ENS_19ContactsBlockedTypeEP10InboundPkt
libqtelegram-ae.so.1:_ZN15ContactsBlockedC1EP10InboundPkt
libqtelegram-ae.so.1:_ZN15ContactsBlockedC2ENS_19ContactsBlockedTypeEP10InboundPkt
libqtelegram-ae.so.1:_ZN15ContactsBlockedC2EP10InboundPkt
libqtelegram-ae.so.1:_ZN15ContactsBlockedD0Ev
libqtelegram-ae.so.1:_ZN15ContactsBlockedD1Ev
libqtelegram-ae.so.1:_ZN15ContactsBlockedD2Ev
libqtelegram-ae.so.1:_ZN15ContactsBlockedeqERKS_
libqtelegram-ae.so.1:_ZN15DisabledFeature10setFeatureERK7QString
libqtelegram-ae.so.1:_ZN15DisabledFeature12setClassTypeENS_19DisabledFeatureTypeE
libqtelegram-ae.so.1:_ZN15DisabledFeature14setDescriptionERK7QString
libqtelegram-ae.so.1:_ZN15DisabledFeature5fetchEP10InboundPkt
libqtelegram-ae.so.1:_ZN15DisabledFeatureC1ENS_19DisabledFeatureTypeEP10InboundPkt
libqtelegram-ae.so.1:_ZN15DisabledFeatureC1EP10InboundPkt
libqtelegram-ae.so.1:_ZN15DisabledFeatureC2ENS_19DisabledFeatureTypeEP10InboundPkt
libqtelegram-ae.so.1:_ZN15DisabledFeatureC2EP10InboundPkt
libqtelegram-ae.so.1:_ZN15DisabledFeatureD0Ev
libqtelegram-ae.so.1:_ZN15DisabledFeatureD1Ev
libqtelegram-ae.so.1:_ZN15DisabledFeatureD2Ev
libqtelegram-ae.so.1:_ZN15DisabledFeatureeqERKS_
libqtelegram-ae.so.1:_ZN15GeochatsLocated10setResultsERK5QListI11ChatLocatedE
libqtelegram-ae.so.1:_ZN15GeochatsLocated11setMessagesERK5QListI14GeoChatMessageE
libqtelegram-ae.so.1:_ZN15GeochatsLocated12setClassTypeENS_19GeochatsLocatedTypeE
libqtelegram-ae.so.1:_ZN15GeochatsLocated5fetchEP10InboundPkt
libqtelegram-ae.so.1:_ZN15GeochatsLocated8setChatsERK5QListI4ChatE
libqtelegram-ae.so.1:_ZN15GeochatsLocated8setUsersERK5QListI4UserE
libqtelegram-ae.so.1:_ZN15GeochatsLocatedC1ENS_19GeochatsLocatedTypeEP10InboundPkt
libqtelegram-ae.so.1:_ZN15GeochatsLocatedC1EP10InboundPkt
libqtelegram-ae.so.1:_ZN15GeochatsLocatedC2ENS_19GeochatsLocatedTypeEP10InboundPkt
libqtelegram-ae.so.1:_ZN15GeochatsLocatedC2EP10InboundPkt
libqtelegram-ae.so.1:_ZN15GeochatsLocatedD0Ev
libqtelegram-ae.so.1:_ZN15GeochatsLocatedD1Ev
libqtelegram-ae.so.1:_ZN15GeochatsLocatedD2Ev
libqtelegram-ae.so.1:_ZN15GeochatsLocatedeqERKS_
libqtelegram-ae.so.1:_ZN15ImportedContact11setClientIdEx
libqtelegram-ae.so.1:_ZN15ImportedContact12setClassTypeENS_19ImportedContactTypeE
libqtelegram-ae.so.1:_ZN15ImportedContact5fetchEP10InboundPkt
libqtelegram-ae.so.1:_ZN15ImportedContact9setUserIdEi
libqtelegram-ae.so.1:_ZN15ImportedContactC1ENS_19ImportedContactTypeEP10InboundPkt
libqtelegram-ae.so.1:_ZN15ImportedContactC1EP10InboundPkt
libqtelegram-ae.so.1:_ZN15ImportedContactC2ENS_19ImportedContactTypeEP10InboundPkt
libqtelegram-ae.so.1:_ZN15ImportedContactC2EP10InboundPkt
libqtelegram-ae.so.1:_ZN15ImportedContactD0Ev
libqtelegram-ae.so.1:_ZN15ImportedContactD1Ev
libqtelegram-ae.so.1:_ZN15ImportedContactD2Ev
libqtelegram-ae.so.1:_ZN15ImportedContacteqERKS_
libqtelegram-ae.so.1:_ZN15InputNotifyPeer12setClassTypeENS_19InputNotifyPeerTypeE
libqtelegram-ae.so.1:_ZN15InputNotifyPeer12setPeerInputERK9InputPeer
libqtelegram-ae.so.1:_ZN15InputNotifyPeer19setPeerInputGeoChatERK12InputGeoChat
libqtelegram-ae.so.1:_ZN15InputNotifyPeer5fetchEP10InboundPkt
libqtelegram-ae.so.1:_ZN15InputNotifyPeerC1ENS_19InputNotifyPeerTypeEP10InboundPkt
libqtelegram-ae.so.1:_ZN15InputNotifyPeerC1EP10InboundPkt
libqtelegram-ae.so.1:_ZN15InputNotifyPeerC2ENS_19InputNotifyPeerTypeEP10InboundPkt
libqtelegram-ae.so.1:_ZN15InputNotifyPeerC2EP10InboundPkt
libqtelegram-ae.so.1:_ZN15InputNotifyPeerD0Ev
libqtelegram-ae.so.1:_ZN15InputNotifyPeerD1Ev
libqtelegram-ae.so.1:_ZN15InputNotifyPeerD2Ev
libqtelegram-ae.so.1:_ZN15InputNotifyPeereqERKS_
libqtelegram-ae.so.1:_ZN15InputPrivacyKey12setClassTypeENS_19InputPrivacyKeyTypeE
libqtelegram-ae.so.1:_ZN15InputPrivacyKey5fetchEP10InboundPkt
libqtelegram-ae.so.1:_ZN15InputPrivacyKeyC1ENS_19InputPrivacyKeyTypeEP10InboundPkt
libqtelegram-ae.so.1:_ZN15InputPrivacyKeyC1EP10InboundPkt
libqtelegram-ae.so.1:_ZN15InputPrivacyKeyC2ENS_19InputPrivacyKeyTypeEP10InboundPkt
libqtelegram-ae.so.1:_ZN15InputPrivacyKeyC2EP10InboundPkt
libqtelegram-ae.so.1:_ZN15InputPrivacyKeyD0Ev
libqtelegram-ae.so.1:_ZN15InputPrivacyKeyD1Ev
libqtelegram-ae.so.1:_ZN15InputPrivacyKeyD2Ev
libqtelegram-ae.so.1:_ZN15InputPrivacyKeyeqERKS_
libqtelegram-ae.so.1:_ZN15InputStickerSet12setClassTypeENS_19InputStickerSetTypeE
libqtelegram-ae.so.1:_ZN15InputStickerSet12setShortNameERK7QString
libqtelegram-ae.so.1:_ZN15InputStickerSet13setAccessHashEx
libqtelegram-ae.so.1:_ZN15InputStickerSet5fetchEP10InboundPkt
libqtelegram-ae.so.1:_ZN15InputStickerSet5setIdEx
libqtelegram-ae.so.1:_ZN15InputStickerSetC1ENS_19InputStickerSetTypeEP10InboundPkt
libqtelegram-ae.so.1:_ZN15InputStickerSetC1EP10InboundPkt
libqtelegram-ae.so.1:_ZN15InputStickerSetC2ENS_19InputStickerSetTypeEP10InboundPkt
libqtelegram-ae.so.1:_ZN15InputStickerSetC2EP10InboundPkt
libqtelegram-ae.so.1:_ZN15InputStickerSetD0Ev
libqtelegram-ae.so.1:_ZN15InputStickerSetD1Ev
libqtelegram-ae.so.1:_ZN15InputStickerSetD2Ev
libqtelegram-ae.so.1:_ZN15InputStickerSeteqERKS_
libqtelegram-ae.so.1:_ZN15MessagesDialogs10setDialogsERK5QListI6DialogE
libqtelegram-ae.so.1:_ZN15MessagesDialogs11setMessagesERK5QListI7MessageE
libqtelegram-ae.so.1:_ZN15MessagesDialogs12setClassTypeENS_19MessagesDialogsTypeE
libqtelegram-ae.so.1:_ZN15MessagesDialogs5fetchEP10InboundPkt
libqtelegram-ae.so.1:_ZN15MessagesDialogs8setChatsERK5QListI4ChatE
libqtelegram-ae.so.1:_ZN15MessagesDialogs8setCountEi
libqtelegram-ae.so.1:_ZN15MessagesDialogs8setUsersERK5QListI4UserE
libqtelegram-ae.so.1:_ZN15MessagesDialogsC1ENS_19MessagesDialogsTypeEP10InboundPkt
libqtelegram-ae.so.1:_ZN15MessagesDialogsC1EP10InboundPkt
libqtelegram-ae.so.1:_ZN15MessagesDialogsC2ENS_19MessagesDialogsTypeEP10InboundPkt
libqtelegram-ae.so.1:_ZN15MessagesDialogsC2EP10InboundPkt
libqtelegram-ae.so.1:_ZN15MessagesDialogsD0Ev
libqtelegram-ae.so.1:_ZN15MessagesDialogsD1Ev
libqtelegram-ae.so.1:_ZN15MessagesDialogsD2Ev
libqtelegram-ae.so.1:_ZN15MessagesDialogseqERKS_
libqtelegram-ae.so.1:_ZN15MessagesMessage12setClassTypeENS_19MessagesMessageTypeE
libqtelegram-ae.so.1:_ZN15MessagesMessage5fetchEP10InboundPkt
libqtelegram-ae.so.1:_ZN15MessagesMessageC1ENS_19MessagesMessageTypeEP10InboundPkt
libqtelegram-ae.so.1:_ZN15MessagesMessageC1EP10InboundPkt
libqtelegram-ae.so.1:_ZN15MessagesMessageC2ENS_19MessagesMessageTypeEP10InboundPkt
libqtelegram-ae.so.1:_ZN15MessagesMessageC2EP10InboundPkt
libqtelegram-ae.so.1:_ZN15MessagesMessageD0Ev
libqtelegram-ae.so.1:_ZN15MessagesMessageD1Ev
libqtelegram-ae.so.1:_ZN15MessagesMessageD2Ev
libqtelegram-ae.so.1:_ZN15MessagesMessageeqERKS_
libqtelegram-ae.so.1:_ZN15StorageFileType12setClassTypeENS_19StorageFileTypeTypeE
libqtelegram-ae.so.1:_ZN15StorageFileType5fetchEP10InboundPkt
libqtelegram-ae.so.1:_ZN15StorageFileTypeC1ENS_19StorageFileTypeTypeEP10InboundPkt
libqtelegram-ae.so.1:_ZN15StorageFileTypeC1EP10InboundPkt
libqtelegram-ae.so.1:_ZN15StorageFileTypeC2ENS_19StorageFileTypeTypeEP10InboundPkt
libqtelegram-ae.so.1:_ZN15StorageFileTypeC2EP10InboundPkt
libqtelegram-ae.so.1:_ZN15StorageFileTypeD0Ev
libqtelegram-ae.so.1:_ZN15StorageFileTypeD1Ev
libqtelegram-ae.so.1:_ZN15StorageFileTypeD2Ev
libqtelegram-ae.so.1:_ZN15StorageFileTypeeqERKS_
libqtelegram-ae.so.1:_ZN16AuthCheckedPhone12setClassTypeENS_20AuthCheckedPhoneTypeE
libqtelegram-ae.so.1:_ZN16AuthCheckedPhone18setPhoneRegisteredEb
libqtelegram-ae.so.1:_ZN16AuthCheckedPhone5fetchEP10InboundPkt
libqtelegram-ae.so.1:_ZN16AuthCheckedPhoneC1ENS_20AuthCheckedPhoneTypeEP10InboundPkt
libqtelegram-ae.so.1:_ZN16AuthCheckedPhoneC1EP10InboundPkt
libqtelegram-ae.so.1:_ZN16AuthCheckedPhoneC2ENS_20AuthCheckedPhoneTypeEP10InboundPkt
libqtelegram-ae.so.1:_ZN16AuthCheckedPhoneC2EP10InboundPkt
libqtelegram-ae.so.1:_ZN16AuthCheckedPhoneD0Ev
libqtelegram-ae.so.1:_ZN16AuthCheckedPhoneD1Ev
libqtelegram-ae.so.1:_ZN16AuthCheckedPhoneD2Ev
libqtelegram-ae.so.1:_ZN16AuthCheckedPhoneeqERKS_
libqtelegram-ae.so.1:_ZN16ChatParticipants10setAdminIdEi
libqtelegram-ae.so.1:_ZN16ChatParticipants10setVersionEi
libqtelegram-ae.so.1:_ZN16ChatParticipants12setClassTypeENS_20ChatParticipantsTypeE
libqtelegram-ae.so.1:_ZN16ChatParticipants15setParticipantsERK5QListI15ChatParticipantE
libqtelegram-ae.so.1:_ZN16ChatParticipants5fetchEP10InboundPkt
libqtelegram-ae.so.1:_ZN16ChatParticipants9setChatIdEi
libqtelegram-ae.so.1:_ZN16ChatParticipantsC1ENS_20ChatParticipantsTypeEP10InboundPkt
libqtelegram-ae.so.1:_ZN16ChatParticipantsC1EP10InboundPkt
libqtelegram-ae.so.1:_ZN16ChatParticipantsC2ENS_20ChatParticipantsTypeEP10InboundPkt
libqtelegram-ae.so.1:_ZN16ChatParticipantsC2EP10InboundPkt
libqtelegram-ae.so.1:_ZN16ChatParticipantsD0Ev
libqtelegram-ae.so.1:_ZN16ChatParticipantsD1Ev
libqtelegram-ae.so.1:_ZN16ChatParticipantsD2Ev
libqtelegram-ae.so.1:_ZN16ChatParticipantseqERKS_
libqtelegram-ae.so.1:_ZN16ContactSuggested12setClassTypeENS_20ContactSuggestedTypeE
libqtelegram-ae.so.1:_ZN16ContactSuggested17setMutualContactsEi
libqtelegram-ae.so.1:_ZN16ContactSuggested5fetchEP10InboundPkt
libqtelegram-ae.so.1:_ZN16ContactSuggested9setUserIdEi
libqtelegram-ae.so.1:_ZN16ContactSuggestedC1ENS_20ContactSuggestedTypeEP10InboundPkt
libqtelegram-ae.so.1:_ZN16ContactSuggestedC1EP10InboundPkt
libqtelegram-ae.so.1:_ZN16ContactSuggestedC2ENS_20ContactSuggestedTypeEP10InboundPkt
libqtelegram-ae.so.1:_ZN16ContactSuggestedC2EP10InboundPkt
libqtelegram-ae.so.1:_ZN16ContactSuggestedD0Ev
libqtelegram-ae.so.1:_ZN16ContactSuggestedD1Ev
libqtelegram-ae.so.1:_ZN16ContactSuggestedD2Ev
libqtelegram-ae.so.1:_ZN16ContactSuggestedeqERKS_
libqtelegram-ae.so.1:_ZN16ContactsContacts11setContactsERK5QListI7ContactE
libqtelegram-ae.so.1:_ZN16ContactsContacts12setClassTypeENS_20ContactsContactsTypeE
libqtelegram-ae.so.1:_ZN16ContactsContacts5fetchEP10InboundPkt
libqtelegram-ae.so.1:_ZN16ContactsContacts8setUsersERK5QListI4UserE
libqtelegram-ae.so.1:_ZN16ContactsContactsC1ENS_20ContactsContactsTypeEP10InboundPkt
libqtelegram-ae.so.1:_ZN16ContactsContactsC1EP10InboundPkt
libqtelegram-ae.so.1:_ZN16ContactsContactsC2ENS_20ContactsContactsTypeEP10InboundPkt
libqtelegram-ae.so.1:_ZN16ContactsContactsC2EP10InboundPkt
libqtelegram-ae.so.1:_ZN16ContactsContactsD0Ev
libqtelegram-ae.so.1:_ZN16ContactsContactsD1Ev
libqtelegram-ae.so.1:_ZN16ContactsContactsD2Ev
libqtelegram-ae.so.1:_ZN16ContactsContactseqERKS_
libqtelegram-ae.so.1:_ZN16EncryptedMessage11setRandomIdEx
libqtelegram-ae.so.1:_ZN16EncryptedMessage12setClassTypeENS_20EncryptedMessageTypeE
libqtelegram-ae.so.1:_ZN16EncryptedMessage5fetchEP10InboundPkt
libqtelegram-ae.so.1:_ZN16EncryptedMessage7setDateEi
libqtelegram-ae.so.1:_ZN16EncryptedMessage7setFileERK13EncryptedFile
libqtelegram-ae.so.1:_ZN16EncryptedMessage8setBytesERK10QByteArray
libqtelegram-ae.so.1:_ZN16EncryptedMessage9setChatIdEi
libqtelegram-ae.so.1:_ZN16EncryptedMessageC1ENS_20EncryptedMessageTypeEP10InboundPkt
libqtelegram-ae.so.1:_ZN16EncryptedMessageC1EP10InboundPkt
libqtelegram-ae.so.1:_ZN16EncryptedMessageC2ENS_20EncryptedMessageTypeEP10InboundPkt
libqtelegram-ae.so.1:_ZN16EncryptedMessageC2EP10InboundPkt
libqtelegram-ae.so.1:_ZN16EncryptedMessageD0Ev
libqtelegram-ae.so.1:_ZN16EncryptedMessageD1Ev
libqtelegram-ae.so.1:_ZN16EncryptedMessageD2Ev
libqtelegram-ae.so.1:_ZN16EncryptedMessageeqERKS_
libqtelegram-ae.so.1:_ZN16GeochatsMessages11setMessagesERK5QListI14GeoChatMessageE
libqtelegram-ae.so.1:_ZN16GeochatsMessages12setClassTypeENS_20GeochatsMessagesTypeE
libqtelegram-ae.so.1:_ZN16GeochatsMessages5fetchEP10InboundPkt
libqtelegram-ae.so.1:_ZN16GeochatsMessages8setChatsERK5QListI4ChatE
libqtelegram-ae.so.1:_ZN16GeochatsMessages8setCountEi
libqtelegram-ae.so.1:_ZN16GeochatsMessages8setUsersERK5QListI4UserE
libqtelegram-ae.so.1:_ZN16GeochatsMessagesC1ENS_20GeochatsMessagesTypeEP10InboundPkt
libqtelegram-ae.so.1:_ZN16GeochatsMessagesC1EP10InboundPkt
libqtelegram-ae.so.1:_ZN16GeochatsMessagesC2ENS_20GeochatsMessagesTypeEP10InboundPkt
libqtelegram-ae.so.1:_ZN16GeochatsMessagesC2EP10InboundPkt
libqtelegram-ae.so.1:_ZN16GeochatsMessagesD0Ev
libqtelegram-ae.so.1:_ZN16GeochatsMessagesD1Ev
libqtelegram-ae.so.1:_ZN16GeochatsMessagesD2Ev
libqtelegram-ae.so.1:_ZN16GeochatsMessageseqERKS_
libqtelegram-ae.so.1:_ZN16InputPrivacyRule12setClassTypeENS_20InputPrivacyRuleTypeE
libqtelegram-ae.so.1:_ZN16InputPrivacyRule5fetchEP10InboundPkt
libqtelegram-ae.so.1:_ZN16InputPrivacyRule8setUsersERK5QListI9InputUserE
libqtelegram-ae.so.1:_ZN16InputPrivacyRuleC1ENS_20InputPrivacyRuleTypeEP10InboundPkt
libqtelegram-ae.so.1:_ZN16InputPrivacyRuleC1EP10InboundPkt
libqtelegram-ae.so.1:_ZN16InputPrivacyRuleC2ENS_20InputPrivacyRuleTypeEP10InboundPkt
libqtelegram-ae.so.1:_ZN16InputPrivacyRuleC2EP10InboundPkt
libqtelegram-ae.so.1:_ZN16InputPrivacyRuleD0Ev
libqtelegram-ae.so.1:_ZN16InputPrivacyRuleD1Ev
libqtelegram-ae.so.1:_ZN16InputPrivacyRuleD2Ev
libqtelegram-ae.so.1:_ZN16InputPrivacyRuleeqERKS_
libqtelegram-ae.so.1:_ZN16MessagesChatFull11setFullChatERK8ChatFull
libqtelegram-ae.so.1:_ZN16MessagesChatFull12setClassTypeENS_20MessagesChatFullTypeE
libqtelegram-ae.so.1:_ZN16MessagesChatFull5fetchEP10InboundPkt
libqtelegram-ae.so.1:_ZN16MessagesChatFull8setChatsERK5QListI4ChatE
libqtelegram-ae.so.1:_ZN16MessagesChatFull8setUsersERK5QListI4UserE
libqtelegram-ae.so.1:_ZN16MessagesChatFullC1ENS_20MessagesChatFullTypeEP10InboundPkt
libqtelegram-ae.so.1:_ZN16MessagesChatFullC1EP10InboundPkt
libqtelegram-ae.so.1:_ZN16MessagesChatFullC2ENS_20MessagesChatFullTypeEP10InboundPkt
libqtelegram-ae.so.1:_ZN16MessagesChatFullC2EP10InboundPkt
libqtelegram-ae.so.1:_ZN16MessagesChatFullD0Ev
libqtelegram-ae.so.1:_ZN16MessagesChatFullD1Ev
libqtelegram-ae.so.1:_ZN16MessagesChatFullD2Ev
libqtelegram-ae.so.1:_ZN16MessagesChatFulleqERKS_
libqtelegram-ae.so.1:_ZN16MessagesDhConfig10setVersionEi
libqtelegram-ae.so.1:_ZN16MessagesDhConfig12setClassTypeENS_20MessagesDhConfigTypeE
libqtelegram-ae.so.1:_ZN16MessagesDhConfig4setGEi
libqtelegram-ae.so.1:_ZN16MessagesDhConfig4setPERK10QByteArray
libqtelegram-ae.so.1:_ZN16MessagesDhConfig5fetchEP10InboundPkt
libqtelegram-ae.so.1:_ZN16MessagesDhConfig9setRandomERK10QByteArray
libqtelegram-ae.so.1:_ZN16MessagesDhConfigC1ENS_20MessagesDhConfigTypeEP10InboundPkt
libqtelegram-ae.so.1:_ZN16MessagesDhConfigC1EP10InboundPkt
libqtelegram-ae.so.1:_ZN16MessagesDhConfigC2ENS_20MessagesDhConfigTypeEP10InboundPkt
libqtelegram-ae.so.1:_ZN16MessagesDhConfigC2EP10InboundPkt
libqtelegram-ae.so.1:_ZN16MessagesDhConfigD0Ev
libqtelegram-ae.so.1:_ZN16MessagesDhConfigD1Ev
libqtelegram-ae.so.1:_ZN16MessagesDhConfigD2Ev
libqtelegram-ae.so.1:_ZN16MessagesDhConfigeqERKS_
libqtelegram-ae.so.1:_ZN16MessagesMessages11setMessagesERK5QListI7MessageE
libqtelegram-ae.so.1:_ZN16MessagesMessages12setClassTypeENS_20MessagesMessagesTypeE
libqtelegram-ae.so.1:_ZN16MessagesMessages5fetchEP10InboundPkt
libqtelegram-ae.so.1:_ZN16MessagesMessages8setChatsERK5QListI4ChatE
libqtelegram-ae.so.1:_ZN16MessagesMessages8setCountEi
libqtelegram-ae.so.1:_ZN16MessagesMessages8setUsersERK5QListI4UserE
libqtelegram-ae.so.1:_ZN16MessagesMessagesC1ENS_20MessagesMessagesTypeEP10InboundPkt
libqtelegram-ae.so.1:_ZN16MessagesMessagesC1EP10InboundPkt
libqtelegram-ae.so.1:_ZN16MessagesMessagesC2ENS_20MessagesMessagesTypeEP10InboundPkt
libqtelegram-ae.so.1:_ZN16MessagesMessagesC2EP10InboundPkt
libqtelegram-ae.so.1:_ZN16MessagesMessagesD0Ev
libqtelegram-ae.so.1:_ZN16MessagesMessagesD1Ev
libqtelegram-ae.so.1:_ZN16MessagesMessagesD2Ev
libqtelegram-ae.so.1:_ZN16MessagesMessageseqERKS_
libqtelegram-ae.so.1:_ZN16MessagesStickers11setStickersERK5QListI8DocumentE
libqtelegram-ae.so.1:_ZN16MessagesStickers12setClassTypeENS_20MessagesStickersTypeE
libqtelegram-ae.so.1:_ZN16MessagesStickers5fetchEP10InboundPkt
libqtelegram-ae.so.1:_ZN16MessagesStickers7setHashERK7QString
libqtelegram-ae.so.1:_ZN16MessagesStickersC1ENS_20MessagesStickersTypeEP10InboundPkt
libqtelegram-ae.so.1:_ZN16MessagesStickersC1EP10InboundPkt
libqtelegram-ae.so.1:_ZN16MessagesStickersC2ENS_20MessagesStickersTypeEP10InboundPkt
libqtelegram-ae.so.1:_ZN16MessagesStickersC2EP10InboundPkt
libqtelegram-ae.so.1:_ZN16MessagesStickersD0Ev
libqtelegram-ae.so.1:_ZN16MessagesStickersD1Ev
libqtelegram-ae.so.1:_ZN16MessagesStickersD2Ev
libqtelegram-ae.so.1:_ZN16MessagesStickerseqERKS_
libqtelegram-ae.so.1:_ZN16PeerNotifyEvents12setClassTypeENS_20PeerNotifyEventsTypeE
libqtelegram-ae.so.1:_ZN16PeerNotifyEvents5fetchEP10InboundPkt
libqtelegram-ae.so.1:_ZN16PeerNotifyEventsC1ENS_20PeerNotifyEventsTypeEP10InboundPkt
libqtelegram-ae.so.1:_ZN16PeerNotifyEventsC1EP10InboundPkt
libqtelegram-ae.so.1:_ZN16PeerNotifyEventsC2ENS_20PeerNotifyEventsTypeEP10InboundPkt
libqtelegram-ae.so.1:_ZN16PeerNotifyEventsC2EP10InboundPkt
libqtelegram-ae.so.1:_ZN16PeerNotifyEventsD0Ev
libqtelegram-ae.so.1:_ZN16PeerNotifyEventsD1Ev
libqtelegram-ae.so.1:_ZN16PeerNotifyEventsD2Ev
libqtelegram-ae.so.1:_ZN16PeerNotifyEventseqERKS_
libqtelegram-ae.so.1:_ZN16UploadFileEngine11fileNotOpenEv
libqtelegram-ae.so.1:_ZN16UploadFileEngine11qt_metacallEN11QMetaObject4CallEiPPv
libqtelegram-ae.so.1:_ZN16UploadFileEngine11qt_metacastEPKc
libqtelegram-ae.so.1:_ZN16UploadFileEngine12fileNotFoundEv
libqtelegram-ae.so.1:_ZN16UploadFileEngine12openIODeviceEv
libqtelegram-ae.so.1:_ZN16UploadFileEngine19calculatePartsCountEv
libqtelegram-ae.so.1:_ZN16UploadFileEngine21increaseUploadedPartsEv
libqtelegram-ae.so.1:_ZN16UploadFileEngine3md5Ev
libqtelegram-ae.so.1:_ZN16UploadFileEngine8nextPartEv
libqtelegram-ae.so.1:_ZN16UploadFileEngineC1EP7SessionP11CryptoUtilsNS_8FileTypeERK10QByteArrayP7QObject
libqtelegram-ae.so.1:_ZN16UploadFileEngineC1EP7SessionP11CryptoUtilsNS_8FileTypeERK7QStringP7QObject
libqtelegram-ae.so.1:_ZN16UploadFileEngineC2EP7SessionP11CryptoUtilsNS_8FileTypeERK10QByteArrayP7QObject
libqtelegram-ae.so.1:_ZN16UploadFileEngineC2EP7SessionP11CryptoUtilsNS_8FileTypeERK7QStringP7QObject
libqtelegram-ae.so.1:_ZN16UploadFileEngineD0Ev
libqtelegram-ae.so.1:_ZN16UploadFileEngineD1Ev
libqtelegram-ae.so.1:_ZN16UploadFileEngineD2Ev
libqtelegram-ae.so.1:_ZN16UserProfilePhoto10setPhotoIdEx
libqtelegram-ae.so.1:_ZN16UserProfilePhoto11setPhotoBigERK12FileLocation
libqtelegram-ae.so.1:_ZN16UserProfilePhoto12setClassTypeENS_20UserProfilePhotoTypeE
libqtelegram-ae.so.1:_ZN16UserProfilePhoto13setPhotoSmallERK12FileLocation
libqtelegram-ae.so.1:_ZN16UserProfilePhoto5fetchEP10InboundPkt
libqtelegram-ae.so.1:_ZN16UserProfilePhotoC1ENS_20UserProfilePhotoTypeEP10InboundPkt
libqtelegram-ae.so.1:_ZN16UserProfilePhotoC1EP10InboundPkt
libqtelegram-ae.so.1:_ZN16UserProfilePhotoC2ENS_20UserProfilePhotoTypeEP10InboundPkt
libqtelegram-ae.so.1:_ZN16UserProfilePhotoC2EP10InboundPkt
libqtelegram-ae.so.1:_ZN16UserProfilePhotoD0Ev
libqtelegram-ae.so.1:_ZN16UserProfilePhotoD1Ev
libqtelegram-ae.so.1:_ZN16UserProfilePhotoD2Ev
libqtelegram-ae.so.1:_ZN16UserProfilePhotoeqERKS_
libqtelegram-ae.so.1:_ZN17AuthAuthorization10setExpiresEi
libqtelegram-ae.so.1:_ZN17AuthAuthorization12setClassTypeENS_21AuthAuthorizationTypeE
libqtelegram-ae.so.1:_ZN17AuthAuthorization5fetchEP10InboundPkt
libqtelegram-ae.so.1:_ZN17AuthAuthorization7setUserERK4User
libqtelegram-ae.so.1:_ZN17AuthAuthorizationC1ENS_21AuthAuthorizationTypeEP10InboundPkt
libqtelegram-ae.so.1:_ZN17AuthAuthorizationC1EP10InboundPkt
libqtelegram-ae.so.1:_ZN17AuthAuthorizationC2ENS_21AuthAuthorizationTypeEP10InboundPkt
libqtelegram-ae.so.1:_ZN17AuthAuthorizationC2EP10InboundPkt
libqtelegram-ae.so.1:_ZN17AuthAuthorizationD0Ev
libqtelegram-ae.so.1:_ZN17AuthAuthorizationD1Ev
libqtelegram-ae.so.1:_ZN17AuthAuthorizationD2Ev
libqtelegram-ae.so.1:_ZN17AuthAuthorizationeqERKS_
libqtelegram-ae.so.1:_ZN17ContactsSuggested10setResultsERK5QListI16ContactSuggestedE
libqtelegram-ae.so.1:_ZN17ContactsSuggested12setClassTypeENS_21ContactsSuggestedTypeE
libqtelegram-ae.so.1:_ZN17ContactsSuggested5fetchEP10InboundPkt
libqtelegram-ae.so.1:_ZN17ContactsSuggested8setUsersERK5QListI4UserE
libqtelegram-ae.so.1:_ZN17ContactsSuggestedC1ENS_21ContactsSuggestedTypeEP10InboundPkt
libqtelegram-ae.so.1:_ZN17ContactsSuggestedC1EP10InboundPkt
libqtelegram-ae.so.1:_ZN17ContactsSuggestedC2ENS_21ContactsSuggestedTypeEP10InboundPkt
libqtelegram-ae.so.1:_ZN17ContactsSuggestedC2EP10InboundPkt
libqtelegram-ae.so.1:_ZN17ContactsSuggestedD0Ev
libqtelegram-ae.so.1:_ZN17ContactsSuggestedD1Ev
libqtelegram-ae.so.1:_ZN17ContactsSuggestedD2Ev
libqtelegram-ae.so.1:_ZN17ContactsSuggestedeqERKS_
libqtelegram-ae.so.1:_ZN17DocumentAttribute11setDurationEi
libqtelegram-ae.so.1:_ZN17DocumentAttribute11setFileNameERK7QString
libqtelegram-ae.so.1:_ZN17DocumentAttribute12setClassTypeENS_21DocumentAttributeTypeE
libqtelegram-ae.so.1:_ZN17DocumentAttribute13setStickersetERK15InputStickerSet
libqtelegram-ae.so.1:_ZN17DocumentAttribute4setHEi
libqtelegram-ae.so.1:_ZN17DocumentAttribute4setWEi
libqtelegram-ae.so.1:_ZN17DocumentAttribute5fetchEP10InboundPkt
libqtelegram-ae.so.1:_ZN17DocumentAttribute6setAltERK7QString
libqtelegram-ae.so.1:_ZN17DocumentAttributeC1ENS_21DocumentAttributeTypeEP10InboundPkt
libqtelegram-ae.so.1:_ZN17DocumentAttributeC1EP10InboundPkt
libqtelegram-ae.so.1:_ZN17DocumentAttributeC2ENS_21DocumentAttributeTypeEP10InboundPkt
libqtelegram-ae.so.1:_ZN17DocumentAttributeC2EP10InboundPkt
libqtelegram-ae.so.1:_ZN17DocumentAttributeD0Ev
libqtelegram-ae.so.1:_ZN17DocumentAttributeD1Ev
libqtelegram-ae.so.1:_ZN17DocumentAttributeD2Ev
libqtelegram-ae.so.1:_ZN17DocumentAttributeeqERKS_
libqtelegram-ae.so.1:_ZN17InputFileLocation10setLocalIdEi
libqtelegram-ae.so.1:_ZN17InputFileLocation11setVolumeIdEx
libqtelegram-ae.so.1:_ZN17InputFileLocation12setClassTypeENS_21InputFileLocationTypeE
libqtelegram-ae.so.1:_ZN17InputFileLocation13setAccessHashEx
libqtelegram-ae.so.1:_ZN17InputFileLocation5fetchEP10InboundPkt
libqtelegram-ae.so.1:_ZN17InputFileLocation5setIdEx
libqtelegram-ae.so.1:_ZN17InputFileLocation9setSecretEx
libqtelegram-ae.so.1:_ZN17InputFileLocationC1ENS_21InputFileLocationTypeEP10InboundPkt
libqtelegram-ae.so.1:_ZN17InputFileLocationC1EP10InboundPkt
libqtelegram-ae.so.1:_ZN17InputFileLocationC2ENS_21InputFileLocationTypeEP10InboundPkt
libqtelegram-ae.so.1:_ZN17InputFileLocationC2EP10InboundPkt
libqtelegram-ae.so.1:_ZN17InputFileLocationD0Ev
libqtelegram-ae.so.1:_ZN17InputFileLocationD1Ev
libqtelegram-ae.so.1:_ZN17InputFileLocationD2Ev
libqtelegram-ae.so.1:_ZN17InputFileLocationeqERKS_
libqtelegram-ae.so.1:_ZN17SendMessageAction11setProgressEi
libqtelegram-ae.so.1:_ZN17SendMessageAction12setClassTypeENS_21SendMessageActionTypeE
libqtelegram-ae.so.1:_ZN17SendMessageAction5fetchEP10InboundPkt
libqtelegram-ae.so.1:_ZN17SendMessageActionC1ENS_21SendMessageActionTypeEP10InboundPkt
libqtelegram-ae.so.1:_ZN17SendMessageActionC1EP10InboundPkt
libqtelegram-ae.so.1:_ZN17SendMessageActionC2ENS_21SendMessageActionTypeEP10InboundPkt
libqtelegram-ae.so.1:_ZN17SendMessageActionC2EP10InboundPkt
libqtelegram-ae.so.1:_ZN17SendMessageActionD0Ev
libqtelegram-ae.so.1:_ZN17SendMessageActionD1Ev
libqtelegram-ae.so.1:_ZN17SendMessageActionD2Ev
libqtelegram-ae.so.1:_ZN17SendMessageActioneqERKS_
libqtelegram-ae.so.1:_ZN17UpdatesDifference12setClassTypeENS_21UpdatesDifferenceTypeE
libqtelegram-ae.so.1:_ZN17UpdatesDifference14setNewMessagesERK5QListI7MessageE
libqtelegram-ae.so.1:_ZN17UpdatesDifference15setOtherUpdatesERK5QListI6UpdateE
libqtelegram-ae.so.1:_ZN17UpdatesDifference20setIntermediateStateERK12UpdatesState
libqtelegram-ae.so.1:_ZN17UpdatesDifference23setNewEncryptedMessagesERK5QListI16EncryptedMessageE
libqtelegram-ae.so.1:_ZN17UpdatesDifference5fetchEP10InboundPkt
libqtelegram-ae.so.1:_ZN17UpdatesDifference6setSeqEi
libqtelegram-ae.so.1:_ZN17UpdatesDifference7setDateEi
libqtelegram-ae.so.1:_ZN17UpdatesDifference8setChatsERK5QListI4ChatE
libqtelegram-ae.so.1:_ZN17UpdatesDifference8setStateERK12UpdatesState
libqtelegram-ae.so.1:_ZN17UpdatesDifference8setUsersERK5QListI4UserE
libqtelegram-ae.so.1:_ZN17UpdatesDifferenceC1ENS_21UpdatesDifferenceTypeEP10InboundPkt
libqtelegram-ae.so.1:_ZN17UpdatesDifferenceC1EP10InboundPkt
libqtelegram-ae.so.1:_ZN17UpdatesDifferenceC2ENS_21UpdatesDifferenceTypeEP10InboundPkt
libqtelegram-ae.so.1:_ZN17UpdatesDifferenceC2EP10InboundPkt
libqtelegram-ae.so.1:_ZN17UpdatesDifferenceD0Ev
libqtelegram-ae.so.1:_ZN17UpdatesDifferenceD1Ev
libqtelegram-ae.so.1:_ZN17UpdatesDifferenceD2Ev
libqtelegram-ae.so.1:_ZN17UpdatesDifferenceeqERKS_
libqtelegram-ae.so.1:_ZN18ExportedChatInvite12setClassTypeENS_22ExportedChatInviteTypeE
libqtelegram-ae.so.1:_ZN18ExportedChatInvite5fetchEP10InboundPkt
libqtelegram-ae.so.1:_ZN18ExportedChatInvite7setLinkERK7QString
libqtelegram-ae.so.1:_ZN18ExportedChatInviteC1ENS_22ExportedChatInviteTypeEP10InboundPkt
libqtelegram-ae.so.1:_ZN18ExportedChatInviteC1EP10InboundPkt
libqtelegram-ae.so.1:_ZN18ExportedChatInviteC2ENS_22ExportedChatInviteTypeEP10InboundPkt
libqtelegram-ae.so.1:_ZN18ExportedChatInviteC2EP10InboundPkt
libqtelegram-ae.so.1:_ZN18ExportedChatInviteD0Ev
libqtelegram-ae.so.1:_ZN18ExportedChatInviteD1Ev
libqtelegram-ae.so.1:_ZN18ExportedChatInviteD2Ev
libqtelegram-ae.so.1:_ZN18ExportedChatInviteeqERKS_
libqtelegram-ae.so.1:_ZN18InputEncryptedChat12setClassTypeENS_22InputEncryptedChatTypeE
libqtelegram-ae.so.1:_ZN18InputEncryptedChat13setAccessHashEx
libqtelegram-ae.so.1:_ZN18InputEncryptedChat5fetchEP10InboundPkt
libqtelegram-ae.so.1:_ZN18InputEncryptedChat9setChatIdEi
libqtelegram-ae.so.1:_ZN18InputEncryptedChatC1ENS_22InputEncryptedChatTypeEP10InboundPkt
libqtelegram-ae.so.1:_ZN18InputEncryptedChatC1EP10InboundPkt
libqtelegram-ae.so.1:_ZN18InputEncryptedChatC2ENS_22InputEncryptedChatTypeEP10InboundPkt
libqtelegram-ae.so.1:_ZN18InputEncryptedChatC2EP10InboundPkt
libqtelegram-ae.so.1:_ZN18InputEncryptedChatD0Ev
libqtelegram-ae.so.1:_ZN18InputEncryptedChatD1Ev
libqtelegram-ae.so.1:_ZN18InputEncryptedChatD2Ev
libqtelegram-ae.so.1:_ZN18InputEncryptedChateqERKS_
libqtelegram-ae.so.1:_ZN18InputEncryptedFile12setClassTypeENS_22InputEncryptedFileTypeE
libqtelegram-ae.so.1:_ZN18InputEncryptedFile13setAccessHashEx
libqtelegram-ae.so.1:_ZN18InputEncryptedFile14setMd5ChecksumERK7QString
libqtelegram-ae.so.1:_ZN18InputEncryptedFile17setKeyFingerprintEi
libqtelegram-ae.so.1:_ZN18InputEncryptedFile5fetchEP10InboundPkt
libqtelegram-ae.so.1:_ZN18InputEncryptedFile5setIdEx
libqtelegram-ae.so.1:_ZN18InputEncryptedFile8setPartsEi
libqtelegram-ae.so.1:_ZN18InputEncryptedFileC1ENS_22InputEncryptedFileTypeEP10InboundPkt
libqtelegram-ae.so.1:_ZN18InputEncryptedFileC1EP10InboundPkt
libqtelegram-ae.so.1:_ZN18InputEncryptedFileC2ENS_22InputEncryptedFileTypeEP10InboundPkt
libqtelegram-ae.so.1:_ZN18InputEncryptedFileC2EP10InboundPkt
libqtelegram-ae.so.1:_ZN18InputEncryptedFileD0Ev
libqtelegram-ae.so.1:_ZN18InputEncryptedFileD1Ev
libqtelegram-ae.so.1:_ZN18InputEncryptedFileD2Ev
libqtelegram-ae.so.1:_ZN18InputEncryptedFileeqERKS_
libqtelegram-ae.so.1:_ZN18MessagesStickerSet12setClassTypeENS_22MessagesStickerSetTypeE
libqtelegram-ae.so.1:_ZN18MessagesStickerSet12setDocumentsERK5QListI8DocumentE
libqtelegram-ae.so.1:_ZN18MessagesStickerSet5fetchEP10InboundPkt
libqtelegram-ae.so.1:_ZN18MessagesStickerSet6setSetERK10StickerSet
libqtelegram-ae.so.1:_ZN18MessagesStickerSet8setPacksERK5QListI11StickerPackE
libqtelegram-ae.so.1:_ZN18MessagesStickerSetC1ENS_22MessagesStickerSetTypeEP10InboundPkt
libqtelegram-ae.so.1:_ZN18MessagesStickerSetC1EP10InboundPkt
libqtelegram-ae.so.1:_ZN18MessagesStickerSetC2ENS_22MessagesStickerSetTypeEP10InboundPkt
libqtelegram-ae.so.1:_ZN18MessagesStickerSetC2EP10InboundPkt
libqtelegram-ae.so.1:_ZN18MessagesStickerSetD0Ev
libqtelegram-ae.so.1:_ZN18MessagesStickerSetD1Ev
libqtelegram-ae.so.1:_ZN18MessagesStickerSetD2Ev
libqtelegram-ae.so.1:_ZN18MessagesStickerSeteqERKS_
libqtelegram-ae.so.1:_ZN18PeerNotifySettings12setClassTypeENS_22PeerNotifySettingsTypeE
libqtelegram-ae.so.1:_ZN18PeerNotifySettings12setMuteUntilEi
libqtelegram-ae.so.1:_ZN18PeerNotifySettings13setEventsMaskEi
libqtelegram-ae.so.1:_ZN18PeerNotifySettings15setShowPreviewsEb
libqtelegram-ae.so.1:_ZN18PeerNotifySettings5fetchEP10InboundPkt
libqtelegram-ae.so.1:_ZN18PeerNotifySettings8setSoundERK7QString
libqtelegram-ae.so.1:_ZN18PeerNotifySettingsC1ENS_22PeerNotifySettingsTypeEP10InboundPkt
libqtelegram-ae.so.1:_ZN18PeerNotifySettingsC1EP10InboundPkt
libqtelegram-ae.so.1:_ZN18PeerNotifySettingsC2ENS_22PeerNotifySettingsTypeEP10InboundPkt
libqtelegram-ae.so.1:_ZN18PeerNotifySettingsC2EP10InboundPkt
libqtelegram-ae.so.1:_ZN18PeerNotifySettingsD0Ev
libqtelegram-ae.so.1:_ZN18PeerNotifySettingsD1Ev
libqtelegram-ae.so.1:_ZN18PeerNotifySettingsD2Ev
libqtelegram-ae.so.1:_ZN18PeerNotifySettingseqERKS_
libqtelegram-ae.so.1:_ZN18TelegramTypeObjectC1Ev
libqtelegram-ae.so.1:_ZN18TelegramTypeObjectC2Ev
libqtelegram-ae.so.1:_ZN18TelegramTypeObjectD1Ev
libqtelegram-ae.so.1:_ZN18TelegramTypeObjectD2Ev
libqtelegram-ae.so.1:_ZN19AccountPrivacyRules12setClassTypeENS_23AccountPrivacyRulesTypeE
libqtelegram-ae.so.1:_ZN19AccountPrivacyRules5fetchEP10InboundPkt
libqtelegram-ae.so.1:_ZN19AccountPrivacyRules8setRulesERK5QListI11PrivacyRuleE
libqtelegram-ae.so.1:_ZN19AccountPrivacyRules8setUsersERK5QListI4UserE
libqtelegram-ae.so.1:_ZN19AccountPrivacyRulesC1ENS_23AccountPrivacyRulesTypeEP10InboundPkt
libqtelegram-ae.so.1:_ZN19AccountPrivacyRulesC1EP10InboundPkt
libqtelegram-ae.so.1:_ZN19AccountPrivacyRulesC2ENS_23AccountPrivacyRulesTypeEP10InboundPkt
libqtelegram-ae.so.1:_ZN19AccountPrivacyRulesC2EP10InboundPkt
libqtelegram-ae.so.1:_ZN19AccountPrivacyRulesD0Ev
libqtelegram-ae.so.1:_ZN19AccountPrivacyRulesD1Ev
libqtelegram-ae.so.1:_ZN19AccountPrivacyRulesD2Ev
libqtelegram-ae.so.1:_ZN19AccountPrivacyRuleseqERKS_
libqtelegram-ae.so.1:_ZN19MessagesAllStickers12setClassTypeENS_23MessagesAllStickersTypeE
libqtelegram-ae.so.1:_ZN19MessagesAllStickers12setDocumentsERK5QListI8DocumentE
libqtelegram-ae.so.1:_ZN19MessagesAllStickers5fetchEP10InboundPkt
libqtelegram-ae.so.1:_ZN19MessagesAllStickers7setHashERK7QString
libqtelegram-ae.so.1:_ZN19MessagesAllStickers7setSetsERK5QListI10StickerSetE
libqtelegram-ae.so.1:_ZN19MessagesAllStickers8setPacksERK5QListI11StickerPackE
libqtelegram-ae.so.1:_ZN19MessagesAllStickersC1ENS_23MessagesAllStickersTypeEP10InboundPkt
libqtelegram-ae.so.1:_ZN19MessagesAllStickersC1EP10InboundPkt
libqtelegram-ae.so.1:_ZN19MessagesAllStickersC2ENS_23MessagesAllStickersTypeEP10InboundPkt
libqtelegram-ae.so.1:_ZN19MessagesAllStickersC2EP10InboundPkt
libqtelegram-ae.so.1:_ZN19MessagesAllStickersD0Ev
libqtelegram-ae.so.1:_ZN19MessagesAllStickersD1Ev
libqtelegram-ae.so.1:_ZN19MessagesAllStickersD2Ev
libqtelegram-ae.so.1:_ZN19MessagesAllStickerseqERKS_
libqtelegram-ae.so.1:_ZN19MessagesSentMessage11setPtsCountEi
libqtelegram-ae.so.1:_ZN19MessagesSentMessage12setClassTypeENS_23MessagesSentMessageTypeE
libqtelegram-ae.so.1:_ZN19MessagesSentMessage5fetchEP10InboundPkt
libqtelegram-ae.so.1:_ZN19MessagesSentMessage5setIdEi
libqtelegram-ae.so.1:_ZN19MessagesSentMessage6setPtsEi
libqtelegram-ae.so.1:_ZN19MessagesSentMessage6setSeqEi
libqtelegram-ae.so.1:_ZN19MessagesSentMessage7setDateEi
libqtelegram-ae.so.1:_ZN19MessagesSentMessage8setLinksERK5QListI12ContactsLinkE
libqtelegram-ae.so.1:_ZN19MessagesSentMessage8setMediaERK12MessageMedia
libqtelegram-ae.so.1:_ZN19MessagesSentMessageC1ENS_23MessagesSentMessageTypeEP10InboundPkt
libqtelegram-ae.so.1:_ZN19MessagesSentMessageC1EP10InboundPkt
libqtelegram-ae.so.1:_ZN19MessagesSentMessageC2ENS_23MessagesSentMessageTypeEP10InboundPkt
libqtelegram-ae.so.1:_ZN19MessagesSentMessageC2EP10InboundPkt
libqtelegram-ae.so.1:_ZN19MessagesSentMessageD0Ev
libqtelegram-ae.so.1:_ZN19MessagesSentMessageD1Ev
libqtelegram-ae.so.1:_ZN19MessagesSentMessageD2Ev
libqtelegram-ae.so.1:_ZN19MessagesSentMessageeqERKS_
libqtelegram-ae.so.1:_ZN20AuthPasswordRecovery12setClassTypeENS_24AuthPasswordRecoveryTypeE
libqtelegram-ae.so.1:_ZN20AuthPasswordRecovery15setEmailPatternERK7QString
libqtelegram-ae.so.1:_ZN20AuthPasswordRecovery5fetchEP10InboundPkt
libqtelegram-ae.so.1:_ZN20AuthPasswordRecoveryC1ENS_24AuthPasswordRecoveryTypeEP10InboundPkt
libqtelegram-ae.so.1:_ZN20AuthPasswordRecoveryC1EP10InboundPkt
libqtelegram-ae.so.1:_ZN20AuthPasswordRecoveryC2ENS_24AuthPasswordRecoveryTypeEP10InboundPkt
libqtelegram-ae.so.1:_ZN20AuthPasswordRecoveryC2EP10InboundPkt
libqtelegram-ae.so.1:_ZN20AuthPasswordRecoveryD0Ev
libqtelegram-ae.so.1:_ZN20AuthPasswordRecoveryD1Ev
libqtelegram-ae.so.1:_ZN20AuthPasswordRecoveryD2Ev
libqtelegram-ae.so.1:_ZN20AuthPasswordRecoveryeqERKS_
libqtelegram-ae.so.1:_ZN21AccountAuthorizations12setClassTypeENS_25AccountAuthorizationsTypeE
libqtelegram-ae.so.1:_ZN21AccountAuthorizations17setAuthorizationsERK5QListI13AuthorizationE
libqtelegram-ae.so.1:_ZN21AccountAuthorizations5fetchEP10InboundPkt
libqtelegram-ae.so.1:_ZN21AccountAuthorizationsC1ENS_25AccountAuthorizationsTypeEP10InboundPkt
libqtelegram-ae.so.1:_ZN21AccountAuthorizationsC1EP10InboundPkt
libqtelegram-ae.so.1:_ZN21AccountAuthorizationsC2ENS_25AccountAuthorizationsTypeEP10InboundPkt
libqtelegram-ae.so.1:_ZN21AccountAuthorizationsC2EP10InboundPkt
libqtelegram-ae.so.1:_ZN21AccountAuthorizationsD0Ev
libqtelegram-ae.so.1:_ZN21AccountAuthorizationsD1Ev
libqtelegram-ae.so.1:_ZN21AccountAuthorizationsD2Ev
libqtelegram-ae.so.1:_ZN21AccountAuthorizationseqERKS_
libqtelegram-ae.so.1:_ZN21GeochatsStatedMessage10setMessageERK14GeoChatMessage
libqtelegram-ae.so.1:_ZN21GeochatsStatedMessage12setClassTypeENS_25GeochatsStatedMessageTypeE
libqtelegram-ae.so.1:_ZN21GeochatsStatedMessage5fetchEP10InboundPkt
libqtelegram-ae.so.1:_ZN21GeochatsStatedMessage6setSeqEi
libqtelegram-ae.so.1:_ZN21GeochatsStatedMessage8setChatsERK5QListI4ChatE
libqtelegram-ae.so.1:_ZN21GeochatsStatedMessage8setUsersERK5QListI4UserE
libqtelegram-ae.so.1:_ZN21GeochatsStatedMessageC1ENS_25GeochatsStatedMessageTypeEP10InboundPkt
libqtelegram-ae.so.1:_ZN21GeochatsStatedMessageC1EP10InboundPkt
libqtelegram-ae.so.1:_ZN21GeochatsStatedMessageC2ENS_25GeochatsStatedMessageTypeEP10InboundPkt
libqtelegram-ae.so.1:_ZN21GeochatsStatedMessageC2EP10InboundPkt
libqtelegram-ae.so.1:_ZN21GeochatsStatedMessageD0Ev
libqtelegram-ae.so.1:_ZN21GeochatsStatedMessageD1Ev
libqtelegram-ae.so.1:_ZN21GeochatsStatedMessageD2Ev
libqtelegram-ae.so.1:_ZN21GeochatsStatedMessageeqERKS_
libqtelegram-ae.so.1:_ZN21InputPeerNotifyEvents12setClassTypeENS_25InputPeerNotifyEventsTypeE
libqtelegram-ae.so.1:_ZN21InputPeerNotifyEvents5fetchEP10InboundPkt
libqtelegram-ae.so.1:_ZN21InputPeerNotifyEventsC1ENS_25InputPeerNotifyEventsTypeEP10InboundPkt
libqtelegram-ae.so.1:_ZN21InputPeerNotifyEventsC1EP10InboundPkt
libqtelegram-ae.so.1:_ZN21InputPeerNotifyEventsC2ENS_25InputPeerNotifyEventsTypeEP10InboundPkt
libqtelegram-ae.so.1:_ZN21InputPeerNotifyEventsC2EP10InboundPkt
libqtelegram-ae.so.1:_ZN21InputPeerNotifyEventsD0Ev
libqtelegram-ae.so.1:_ZN21InputPeerNotifyEventsD1Ev
libqtelegram-ae.so.1:_ZN21InputPeerNotifyEventsD2Ev
libqtelegram-ae.so.1:_ZN21InputPeerNotifyEventseqERKS_
libqtelegram-ae.so.1:_ZN21ReceivedNotifyMessage12setClassTypeENS_25ReceivedNotifyMessageTypeE
libqtelegram-ae.so.1:_ZN21ReceivedNotifyMessage5fetchEP10InboundPkt
libqtelegram-ae.so.1:_ZN21ReceivedNotifyMessage5setIdEi
libqtelegram-ae.so.1:_ZN21ReceivedNotifyMessage8setFlagsEi
libqtelegram-ae.so.1:_ZN21ReceivedNotifyMessageC1ENS_25ReceivedNotifyMessageTypeEP10InboundPkt
libqtelegram-ae.so.1:_ZN21ReceivedNotifyMessageC1EP10InboundPkt
libqtelegram-ae.so.1:_ZN21ReceivedNotifyMessageC2ENS_25ReceivedNotifyMessageTypeEP10InboundPkt
libqtelegram-ae.so.1:_ZN21ReceivedNotifyMessageC2EP10InboundPkt
libqtelegram-ae.so.1:_ZN21ReceivedNotifyMessageD0Ev
libqtelegram-ae.so.1:_ZN21ReceivedNotifyMessageD1Ev
libqtelegram-ae.so.1:_ZN21ReceivedNotifyMessageD2Ev
libqtelegram-ae.so.1:_ZN21ReceivedNotifyMessageeqERKS_
libqtelegram-ae.so.1:_ZN23AccountPasswordSettings12setClassTypeENS_27AccountPasswordSettingsTypeE
libqtelegram-ae.so.1:_ZN23AccountPasswordSettings5fetchEP10InboundPkt
libqtelegram-ae.so.1:_ZN23AccountPasswordSettings8setEmailERK7QString
libqtelegram-ae.so.1:_ZN23AccountPasswordSettingsC1ENS_27AccountPasswordSettingsTypeEP10InboundPkt
libqtelegram-ae.so.1:_ZN23AccountPasswordSettingsC1EP10InboundPkt
libqtelegram-ae.so.1:_ZN23AccountPasswordSettingsC2ENS_27AccountPasswordSettingsTypeEP10InboundPkt
libqtelegram-ae.so.1:_ZN23AccountPasswordSettingsC2EP10InboundPkt
libqtelegram-ae.so.1:_ZN23AccountPasswordSettingsD0Ev
libqtelegram-ae.so.1:_ZN23AccountPasswordSettingsD1Ev
libqtelegram-ae.so.1:_ZN23AccountPasswordSettingsD2Ev
libqtelegram-ae.so.1:_ZN23AccountPasswordSettingseqERKS_
libqtelegram-ae.so.1:_ZN23DecryptedMessageBuilder19generateRandomBytesEv
libqtelegram-ae.so.1:_ZN23DecryptedMessageBuilder27buildDecryptedMessageForTtlExi
libqtelegram-ae.so.1:_ZN23DecryptedMessageBuilder30buildDecryptedMessageForResendExii
libqtelegram-ae.so.1:_ZN23DecryptedMessageBuilder33buildDecryptedMessageForSendPhotoExiRK10QByteArrayS2_iiiS2_ii
libqtelegram-ae.so.1:_ZN23DecryptedMessageBuilder33buildDecryptedMessageForSendVideoExiRK10QByteArrayS2_iRK7QStringiiiS2_ii
libqtelegram-ae.so.1:_ZN23DecryptedMessageBuilder35buildDecryptedMessageForNotifyLayerExi
libqtelegram-ae.so.1:_ZN23DecryptedMessageBuilder35buildDecryptedMessageForSendMessageExiRK7QString
libqtelegram-ae.so.1:_ZN23DecryptedMessageBuilder36buildDecryptedMessageForSendDocumentExiRK10QByteArrayS2_iRK7QStringS5_S2_ii
libqtelegram-ae.so.1:_ZN23DecryptedMessageBuilderC1Ei
libqtelegram-ae.so.1:_ZN23DecryptedMessageBuilderC2Ei
libqtelegram-ae.so.1:_ZN23InputPeerNotifySettings12setClassTypeENS_27InputPeerNotifySettingsTypeE
libqtelegram-ae.so.1:_ZN23InputPeerNotifySettings12setMuteUntilEi
libqtelegram-ae.so.1:_ZN23InputPeerNotifySettings13setEventsMaskEi
libqtelegram-ae.so.1:_ZN23InputPeerNotifySettings15setShowPreviewsEb
libqtelegram-ae.so.1:_ZN23InputPeerNotifySettings5fetchEP10InboundPkt
libqtelegram-ae.so.1:_ZN23InputPeerNotifySettings8setSoundERK7QString
libqtelegram-ae.so.1:_ZN23InputPeerNotifySettingsC1ENS_27InputPeerNotifySettingsTypeEP10InboundPkt
libqtelegram-ae.so.1:_ZN23InputPeerNotifySettingsC1EP10InboundPkt
libqtelegram-ae.so.1:_ZN23InputPeerNotifySettingsC2ENS_27InputPeerNotifySettingsTypeEP10InboundPkt
libqtelegram-ae.so.1:_ZN23InputPeerNotifySettingsC2EP10InboundPkt
libqtelegram-ae.so.1:_ZN23InputPeerNotifySettingsD0Ev
libqtelegram-ae.so.1:_ZN23InputPeerNotifySettingsD1Ev
libqtelegram-ae.so.1:_ZN23InputPeerNotifySettingsD2Ev
libqtelegram-ae.so.1:_ZN23InputPeerNotifySettingseqERKS_
libqtelegram-ae.so.1:_ZN23MessagesAffectedHistory11setPtsCountEi
libqtelegram-ae.so.1:_ZN23MessagesAffectedHistory12setClassTypeENS_27MessagesAffectedHistoryTypeE
libqtelegram-ae.so.1:_ZN23MessagesAffectedHistory5fetchEP10InboundPkt
libqtelegram-ae.so.1:_ZN23MessagesAffectedHistory6setPtsEi
libqtelegram-ae.so.1:_ZN23MessagesAffectedHistory9setOffsetEi
libqtelegram-ae.so.1:_ZN23MessagesAffectedHistoryC1ENS_27MessagesAffectedHistoryTypeEP10InboundPkt
libqtelegram-ae.so.1:_ZN23MessagesAffectedHistoryC1EP10InboundPkt
libqtelegram-ae.so.1:_ZN23MessagesAffectedHistoryC2ENS_27MessagesAffectedHistoryTypeEP10InboundPkt
libqtelegram-ae.so.1:_ZN23MessagesAffectedHistoryC2EP10InboundPkt
libqtelegram-ae.so.1:_ZN23MessagesAffectedHistoryD0Ev
libqtelegram-ae.so.1:_ZN23MessagesAffectedHistoryD1Ev
libqtelegram-ae.so.1:_ZN23MessagesAffectedHistoryD2Ev
libqtelegram-ae.so.1:_ZN23MessagesAffectedHistoryeqERKS_
libqtelegram-ae.so.1:_ZN24ContactsImportedContacts11setImportedERK5QListI15ImportedContactE
libqtelegram-ae.so.1:_ZN24ContactsImportedContacts12setClassTypeENS_28ContactsImportedContactsTypeE
libqtelegram-ae.so.1:_ZN24ContactsImportedContacts16setRetryContactsERK5QListIxE
libqtelegram-ae.so.1:_ZN24ContactsImportedContacts5fetchEP10InboundPkt
libqtelegram-ae.so.1:_ZN24ContactsImportedContacts8setUsersERK5QListI4UserE
libqtelegram-ae.so.1:_ZN24ContactsImportedContactsC1ENS_28ContactsImportedContactsTypeEP10InboundPkt
libqtelegram-ae.so.1:_ZN24ContactsImportedContactsC1EP10InboundPkt
libqtelegram-ae.so.1:_ZN24ContactsImportedContactsC2ENS_28ContactsImportedContactsTypeEP10InboundPkt
libqtelegram-ae.so.1:_ZN24ContactsImportedContactsC2EP10InboundPkt
libqtelegram-ae.so.1:_ZN24ContactsImportedContactsD0Ev
libqtelegram-ae.so.1:_ZN24ContactsImportedContactsD1Ev
libqtelegram-ae.so.1:_ZN24ContactsImportedContactsD2Ev
libqtelegram-ae.so.1:_ZN24ContactsImportedContactseqERKS_
libqtelegram-ae.so.1:_ZN24MessagesAffectedMessages11setPtsCountEi
libqtelegram-ae.so.1:_ZN24MessagesAffectedMessages12setClassTypeENS_28MessagesAffectedMessagesTypeE
libqtelegram-ae.so.1:_ZN24MessagesAffectedMessages5fetchEP10InboundPkt
libqtelegram-ae.so.1:_ZN24MessagesAffectedMessages6setPtsEi
libqtelegram-ae.so.1:_ZN24MessagesAffectedMessagesC1ENS_28MessagesAffectedMessagesTypeEP10InboundPkt
libqtelegram-ae.so.1:_ZN24MessagesAffectedMessagesC1EP10InboundPkt
libqtelegram-ae.so.1:_ZN24MessagesAffectedMessagesC2ENS_28MessagesAffectedMessagesTypeEP10InboundPkt
libqtelegram-ae.so.1:_ZN24MessagesAffectedMessagesC2EP10InboundPkt
libqtelegram-ae.so.1:_ZN24MessagesAffectedMessagesD0Ev
libqtelegram-ae.so.1:_ZN24MessagesAffectedMessagesD1Ev
libqtelegram-ae.so.1:_ZN24MessagesAffectedMessagesD2Ev
libqtelegram-ae.so.1:_ZN24MessagesAffectedMessageseqERKS_
libqtelegram-ae.so.1:_ZN25AuthExportedAuthorization12setClassTypeENS_29AuthExportedAuthorizationTypeE
libqtelegram-ae.so.1:_ZN25AuthExportedAuthorization5fetchEP10InboundPkt
libqtelegram-ae.so.1:_ZN25AuthExportedAuthorization5setIdEi
libqtelegram-ae.so.1:_ZN25AuthExportedAuthorization8setBytesERK10QByteArray
libqtelegram-ae.so.1:_ZN25AuthExportedAuthorizationC1ENS_29AuthExportedAuthorizationTypeEP10InboundPkt
libqtelegram-ae.so.1:_ZN25AuthExportedAuthorizationC1EP10InboundPkt
libqtelegram-ae.so.1:_ZN25AuthExportedAuthorizationC2ENS_29AuthExportedAuthorizationTypeEP10InboundPkt
libqtelegram-ae.so.1:_ZN25AuthExportedAuthorizationC2EP10InboundPkt
libqtelegram-ae.so.1:_ZN25AuthExportedAuthorizationD0Ev
libqtelegram-ae.so.1:_ZN25AuthExportedAuthorizationD1Ev
libqtelegram-ae.so.1:_ZN25AuthExportedAuthorizationD2Ev
libqtelegram-ae.so.1:_ZN25AuthExportedAuthorizationeqERKS_
libqtelegram-ae.so.1:_ZN26AccountSentChangePhoneCode12setClassTypeENS_30AccountSentChangePhoneCodeTypeE
libqtelegram-ae.so.1:_ZN26AccountSentChangePhoneCode16setPhoneCodeHashERK7QString
libqtelegram-ae.so.1:_ZN26AccountSentChangePhoneCode18setSendCallTimeoutEi
libqtelegram-ae.so.1:_ZN26AccountSentChangePhoneCode5fetchEP10InboundPkt
libqtelegram-ae.so.1:_ZN26AccountSentChangePhoneCodeC1ENS_30AccountSentChangePhoneCodeTypeEP10InboundPkt
libqtelegram-ae.so.1:_ZN26AccountSentChangePhoneCodeC1EP10InboundPkt
libqtelegram-ae.so.1:_ZN26AccountSentChangePhoneCodeC2ENS_30AccountSentChangePhoneCodeTypeEP10InboundPkt
libqtelegram-ae.so.1:_ZN26AccountSentChangePhoneCodeC2EP10InboundPkt
libqtelegram-ae.so.1:_ZN26AccountSentChangePhoneCodeD0Ev
libqtelegram-ae.so.1:_ZN26AccountSentChangePhoneCodeD1Ev
libqtelegram-ae.so.1:_ZN26AccountSentChangePhoneCodeD2Ev
libqtelegram-ae.so.1:_ZN26AccountSentChangePhoneCodeeqERKS_
libqtelegram-ae.so.1:_ZN28AccountPasswordInputSettings10setNewSaltERK10QByteArray
libqtelegram-ae.so.1:_ZN28AccountPasswordInputSettings12setClassTypeENS_32AccountPasswordInputSettingsTypeE
libqtelegram-ae.so.1:_ZN28AccountPasswordInputSettings18setNewPasswordHashERK10QByteArray
libqtelegram-ae.so.1:_ZN28AccountPasswordInputSettings5fetchEP10InboundPkt
libqtelegram-ae.so.1:_ZN28AccountPasswordInputSettings7setHintERK7QString
libqtelegram-ae.so.1:_ZN28AccountPasswordInputSettings8setEmailERK7QString
libqtelegram-ae.so.1:_ZN28AccountPasswordInputSettings8setFlagsEi
libqtelegram-ae.so.1:_ZN28AccountPasswordInputSettingsC1ENS_32AccountPasswordInputSettingsTypeEP10InboundPkt
libqtelegram-ae.so.1:_ZN28AccountPasswordInputSettingsC1EP10InboundPkt
libqtelegram-ae.so.1:_ZN28AccountPasswordInputSettingsC2ENS_32AccountPasswordInputSettingsTypeEP10InboundPkt
libqtelegram-ae.so.1:_ZN28AccountPasswordInputSettingsC2EP10InboundPkt
libqtelegram-ae.so.1:_ZN28AccountPasswordInputSettingsD0Ev
libqtelegram-ae.so.1:_ZN28AccountPasswordInputSettingsD1Ev
libqtelegram-ae.so.1:_ZN28AccountPasswordInputSettingsD2Ev
libqtelegram-ae.so.1:_ZN28AccountPasswordInputSettingseqERKS_
libqtelegram-ae.so.1:_ZN28MessagesSentEncryptedMessage12setClassTypeENS_32MessagesSentEncryptedMessageTypeE
libqtelegram-ae.so.1:_ZN28MessagesSentEncryptedMessage5fetchEP10InboundPkt
libqtelegram-ae.so.1:_ZN28MessagesSentEncryptedMessage7setDateEi
libqtelegram-ae.so.1:_ZN28MessagesSentEncryptedMessage7setFileERK13EncryptedFile
libqtelegram-ae.so.1:_ZN28MessagesSentEncryptedMessageC1ENS_32MessagesSentEncryptedMessageTypeEP10InboundPkt
libqtelegram-ae.so.1:_ZN28MessagesSentEncryptedMessageC1EP10InboundPkt
libqtelegram-ae.so.1:_ZN28MessagesSentEncryptedMessageC2ENS_32MessagesSentEncryptedMessageTypeEP10InboundPkt
libqtelegram-ae.so.1:_ZN28MessagesSentEncryptedMessageC2EP10InboundPkt
libqtelegram-ae.so.1:_ZN28MessagesSentEncryptedMessageD0Ev
libqtelegram-ae.so.1:_ZN28MessagesSentEncryptedMessageD1Ev
libqtelegram-ae.so.1:_ZN28MessagesSentEncryptedMessageD2Ev
libqtelegram-ae.so.1:_ZN28MessagesSentEncryptedMessageeqERKS_
libqtelegram-ae.so.1:_ZN2Tg9Functions4Auth10checkPhoneEP11OutboundPktRK7QString
libqtelegram-ae.so.1:_ZN2Tg9Functions4Auth11sendInvitesEP11OutboundPktRK5QListI7QStringERKS5_
libqtelegram-ae.so.1:_ZN2Tg9Functions4Auth12logOutResultEP10InboundPkt
libqtelegram-ae.so.1:_ZN2Tg9Functions4Auth12signInResultEP10InboundPkt
libqtelegram-ae.so.1:_ZN2Tg9Functions4Auth12signUpResultEP10InboundPkt
libqtelegram-ae.so.1:_ZN2Tg9Functions4Auth13checkPasswordEP11OutboundPktRK10QByteArray
libqtelegram-ae.so.1:_ZN2Tg9Functions4Auth13sendSmsResultEP10InboundPkt
libqtelegram-ae.so.1:_ZN2Tg9Functions4Auth14sendCallResultEP10InboundPkt
libqtelegram-ae.so.1:_ZN2Tg9Functions4Auth14sendCodeResultEP10InboundPkt
libqtelegram-ae.so.1:_ZN2Tg9Functions4Auth15bindTempAuthKeyEP11OutboundPktxxiRK10QByteArray
libqtelegram-ae.so.1:_ZN2Tg9Functions4Auth15recoverPasswordEP11OutboundPktRK7QString
libqtelegram-ae.so.1:_ZN2Tg9Functions4Auth16checkPhoneResultEP10InboundPkt
libqtelegram-ae.so.1:_ZN2Tg9Functions4Auth17sendInvitesResultEP10InboundPkt
libqtelegram-ae.so.1:_ZN2Tg9Functions4Auth19checkPasswordResultEP10InboundPkt
libqtelegram-ae.so.1:_ZN2Tg9Functions4Auth19exportAuthorizationEP11OutboundPkti
libqtelegram-ae.so.1:_ZN2Tg9Functions4Auth19importAuthorizationEP11OutboundPktiRK10QByteArray
libqtelegram-ae.so.1:_ZN2Tg9Functions4Auth19resetAuthorizationsEP11OutboundPkt
libqtelegram-ae.so.1:_ZN2Tg9Functions4Auth21bindTempAuthKeyResultEP10InboundPkt
libqtelegram-ae.so.1:_ZN2Tg9Functions4Auth21recoverPasswordResultEP10InboundPkt
libqtelegram-ae.so.1:_ZN2Tg9Functions4Auth23requestPasswordRecoveryEP11OutboundPkt
libqtelegram-ae.so.1:_ZN2Tg9Functions4Auth25exportAuthorizationResultEP10InboundPkt
libqtelegram-ae.so.1:_ZN2Tg9Functions4Auth25importAuthorizationResultEP10InboundPkt
libqtelegram-ae.so.1:_ZN2Tg9Functions4Auth25resetAuthorizationsResultEP10InboundPkt
libqtelegram-ae.so.1:_ZN2Tg9Functions4Auth29requestPasswordRecoveryResultEP10InboundPkt
libqtelegram-ae.so.1:_ZN2Tg9Functions4Auth6logOutEP11OutboundPkt
libqtelegram-ae.so.1:_ZN2Tg9Functions4Auth6signInEP11OutboundPktRK7QStringS6_S6_
libqtelegram-ae.so.1:_ZN2Tg9Functions4Auth6signUpEP11OutboundPktRK7QStringS6_S6_S6_S6_
libqtelegram-ae.so.1:_ZN2Tg9Functions4Auth7sendSmsEP11OutboundPktRK7QStringS6_
libqtelegram-ae.so.1:_ZN2Tg9Functions4Auth8sendCallEP11OutboundPktRK7QStringS6_
libqtelegram-ae.so.1:_ZN2Tg9Functions4Auth8sendCodeEP11OutboundPktRK7QStringiiS6_S6_
libqtelegram-ae.so.1:_ZN2Tg9Functions4AuthC1Ev
libqtelegram-ae.so.1:_ZN2Tg9Functions4AuthC2Ev
libqtelegram-ae.so.1:_ZN2Tg9Functions4AuthD0Ev
libqtelegram-ae.so.1:_ZN2Tg9Functions4AuthD1Ev
libqtelegram-ae.so.1:_ZN2Tg9Functions4AuthD2Ev
libqtelegram-ae.so.1:_ZN2Tg9Functions4Help10getSupportEP11OutboundPkt
libqtelegram-ae.so.1:_ZN2Tg9Functions4Help10saveAppLogEP11OutboundPktRK5QListI13InputAppEventE
libqtelegram-ae.so.1:_ZN2Tg9Functions4Help12getAppUpdateEP11OutboundPktRK7QStringS6_S6_S6_
libqtelegram-ae.so.1:_ZN2Tg9Functions4Help12getNearestDcEP11OutboundPkt
libqtelegram-ae.so.1:_ZN2Tg9Functions4Help13getInviteTextEP11OutboundPktRK7QString
libqtelegram-ae.so.1:_ZN2Tg9Functions4Help15getConfigResultEP10InboundPkt
libqtelegram-ae.so.1:_ZN2Tg9Functions4Help16getSupportResultEP10InboundPkt
libqtelegram-ae.so.1:_ZN2Tg9Functions4Help16saveAppLogResultEP10InboundPkt
libqtelegram-ae.so.1:_ZN2Tg9Functions4Help18getAppUpdateResultEP10InboundPkt
libqtelegram-ae.so.1:_ZN2Tg9Functions4Help18getNearestDcResultEP10InboundPkt
libqtelegram-ae.so.1:_ZN2Tg9Functions4Help19getInviteTextResultEP10InboundPkt
libqtelegram-ae.so.1:_ZN2Tg9Functions4Help9getConfigEP11OutboundPkt
libqtelegram-ae.so.1:_ZN2Tg9Functions4HelpC1Ev
libqtelegram-ae.so.1:_ZN2Tg9Functions4HelpC2Ev
libqtelegram-ae.so.1:_ZN2Tg9Functions4HelpD0Ev
libqtelegram-ae.so.1:_ZN2Tg9Functions4HelpD1Ev
libqtelegram-ae.so.1:_ZN2Tg9Functions4HelpD2Ev
libqtelegram-ae.so.1:_ZN2Tg9Functions5Users11getFullUserEP11OutboundPktRK9InputUser
libqtelegram-ae.so.1:_ZN2Tg9Functions5Users14getUsersResultEP10InboundPkt
libqtelegram-ae.so.1:_ZN2Tg9Functions5Users17getFullUserResultEP10InboundPkt
libqtelegram-ae.so.1:_ZN2Tg9Functions5Users8getUsersEP11OutboundPktRK5QListI9InputUserE
libqtelegram-ae.so.1:_ZN2Tg9Functions5UsersC1Ev
libqtelegram-ae.so.1:_ZN2Tg9Functions5UsersC2Ev
libqtelegram-ae.so.1:_ZN2Tg9Functions5UsersD0Ev
libqtelegram-ae.so.1:_ZN2Tg9Functions5UsersD1Ev
libqtelegram-ae.so.1:_ZN2Tg9Functions5UsersD2Ev
libqtelegram-ae.so.1:_ZN2Tg9Functions6Photos12deletePhotosEP11OutboundPktRK5QListI10InputPhotoE
libqtelegram-ae.so.1:_ZN2Tg9Functions6Photos13getUserPhotosEP11OutboundPktRK9InputUseriii
libqtelegram-ae.so.1:_ZN2Tg9Functions6Photos18deletePhotosResultEP10InboundPkt
libqtelegram-ae.so.1:_ZN2Tg9Functions6Photos18updateProfilePhotoEP11OutboundPktRK10InputPhotoRK14InputPhotoCrop
libqtelegram-ae.so.1:_ZN2Tg9Functions6Photos18uploadProfilePhotoEP11OutboundPktRK9InputFileRK7QStringRK13InputGeoPointRK14InputPhotoCrop
libqtelegram-ae.so.1:_ZN2Tg9Functions6Photos19getUserPhotosResultEP10InboundPkt
libqtelegram-ae.so.1:_ZN2Tg9Functions6Photos24updateProfilePhotoResultEP10InboundPkt
libqtelegram-ae.so.1:_ZN2Tg9Functions6Photos24uploadProfilePhotoResultEP10InboundPkt
libqtelegram-ae.so.1:_ZN2Tg9Functions6PhotosC1Ev
libqtelegram-ae.so.1:_ZN2Tg9Functions6PhotosC2Ev
libqtelegram-ae.so.1:_ZN2Tg9Functions6PhotosD0Ev
libqtelegram-ae.so.1:_ZN2Tg9Functions6PhotosD1Ev
libqtelegram-ae.so.1:_ZN2Tg9Functions6PhotosD2Ev
libqtelegram-ae.so.1:_ZN2Tg9Functions6Upload12saveFilePartEP11OutboundPktxiRK10QByteArray
libqtelegram-ae.so.1:_ZN2Tg9Functions6Upload13getFileResultEP10InboundPkt
libqtelegram-ae.so.1:_ZN2Tg9Functions6Upload15saveBigFilePartEP11OutboundPktxiiRK10QByteArray
libqtelegram-ae.so.1:_ZN2Tg9Functions6Upload18saveFilePartResultEP10InboundPkt
libqtelegram-ae.so.1:_ZN2Tg9Functions6Upload21saveBigFilePartResultEP10InboundPkt
libqtelegram-ae.so.1:_ZN2Tg9Functions6Upload7getFileEP11OutboundPktRK17InputFileLocationii
libqtelegram-ae.so.1:_ZN2Tg9Functions6UploadC1Ev
libqtelegram-ae.so.1:_ZN2Tg9Functions6UploadC2Ev
libqtelegram-ae.so.1:_ZN2Tg9Functions6UploadD0Ev
libqtelegram-ae.so.1:_ZN2Tg9Functions6UploadD1Ev
libqtelegram-ae.so.1:_ZN2Tg9Functions6UploadD2Ev
libqtelegram-ae.so.1:_ZN2Tg9Functions7Account10getPrivacyEP11OutboundPktRK15InputPrivacyKey
libqtelegram-ae.so.1:_ZN2Tg9Functions7Account10setPrivacyEP11OutboundPktRK15InputPrivacyKeyRK5QListI16InputPrivacyRuleE
libqtelegram-ae.so.1:_ZN2Tg9Functions7Account11changePhoneEP11OutboundPktRK7QStringS6_S6_
libqtelegram-ae.so.1:_ZN2Tg9Functions7Account11getPasswordEP11OutboundPkt
libqtelegram-ae.so.1:_ZN2Tg9Functions7Account12updateStatusEP11OutboundPktb
libqtelegram-ae.so.1:_ZN2Tg9Functions7Account13checkUsernameEP11OutboundPktRK7QString
libqtelegram-ae.so.1:_ZN2Tg9Functions7Account13deleteAccountEP11OutboundPktRK7QString
libqtelegram-ae.so.1:_ZN2Tg9Functions7Account13getAccountTTLEP11OutboundPkt
libqtelegram-ae.so.1:_ZN2Tg9Functions7Account13getWallPapersEP11OutboundPkt
libqtelegram-ae.so.1:_ZN2Tg9Functions7Account13setAccountTTLEP11OutboundPktRK14AccountDaysTTL
libqtelegram-ae.so.1:_ZN2Tg9Functions7Account13updateProfileEP11OutboundPktRK7QStringS6_
libqtelegram-ae.so.1:_ZN2Tg9Functions7Account14registerDeviceEP11OutboundPktiRK7QStringS6_S6_S6_bS6_
libqtelegram-ae.so.1:_ZN2Tg9Functions7Account14updateUsernameEP11OutboundPktRK7QString
libqtelegram-ae.so.1:_ZN2Tg9Functions7Account16getPrivacyResultEP10InboundPkt
libqtelegram-ae.so.1:_ZN2Tg9Functions7Account16setPrivacyResultEP10InboundPkt
libqtelegram-ae.so.1:_ZN2Tg9Functions7Account16unregisterDeviceEP11OutboundPktiRK7QString
libqtelegram-ae.so.1:_ZN2Tg9Functions7Account17changePhoneResultEP10InboundPkt
libqtelegram-ae.so.1:_ZN2Tg9Functions7Account17getAuthorizationsEP11OutboundPkt
libqtelegram-ae.so.1:_ZN2Tg9Functions7Account17getNotifySettingsEP11OutboundPktRK15InputNotifyPeer
libqtelegram-ae.so.1:_ZN2Tg9Functions7Account17getPasswordResultEP10InboundPkt
libqtelegram-ae.so.1:_ZN2Tg9Functions7Account18resetAuthorizationEP11OutboundPktx
libqtelegram-ae.so.1:_ZN2Tg9Functions7Account18updateDeviceLockedEP11OutboundPkti
libqtelegram-ae.so.1:_ZN2Tg9Functions7Account18updateStatusResultEP10InboundPkt
libqtelegram-ae.so.1:_ZN2Tg9Functions7Account19checkUsernameResultEP10InboundPkt
libqtelegram-ae.so.1:_ZN2Tg9Functions7Account19deleteAccountResultEP10InboundPkt
libqtelegram-ae.so.1:_ZN2Tg9Functions7Account19getAccountTTLResultEP10InboundPkt
libqtelegram-ae.so.1:_ZN2Tg9Functions7Account19getPasswordSettingsEP11OutboundPktRK10QByteArray
libqtelegram-ae.so.1:_ZN2Tg9Functions7Account19getWallPapersResultEP10InboundPkt
libqtelegram-ae.so.1:_ZN2Tg9Functions7Account19resetNotifySettingsEP11OutboundPkt
libqtelegram-ae.so.1:_ZN2Tg9Functions7Account19sendChangePhoneCodeEP11OutboundPktRK7QString
libqtelegram-ae.so.1:_ZN2Tg9Functions7Account19setAccountTTLResultEP10InboundPkt
libqtelegram-ae.so.1:_ZN2Tg9Functions7Account19updateProfileResultEP10InboundPkt
libqtelegram-ae.so.1:_ZN2Tg9Functions7Account20registerDeviceResultEP10InboundPkt
libqtelegram-ae.so.1:_ZN2Tg9Functions7Account20updateNotifySettingsEP11OutboundPktRK15InputNotifyPeerRK23InputPeerNotifySettings
libqtelegram-ae.so.1:_ZN2Tg9Functions7Account20updateUsernameResultEP10InboundPkt
libqtelegram-ae.so.1:_ZN2Tg9Functions7Account22unregisterDeviceResultEP10InboundPkt
libqtelegram-ae.so.1:_ZN2Tg9Functions7Account22updatePasswordSettingsEP11OutboundPktRK10QByteArrayRK28AccountPasswordInputSettings
libqtelegram-ae.so.1:_ZN2Tg9Functions7Account23getAuthorizationsResultEP10InboundPkt
libqtelegram-ae.so.1:_ZN2Tg9Functions7Account23getNotifySettingsResultEP10InboundPkt
libqtelegram-ae.so.1:_ZN2Tg9Functions7Account24resetAuthorizationResultEP10InboundPkt
libqtelegram-ae.so.1:_ZN2Tg9Functions7Account24updateDeviceLockedResultEP10InboundPkt
libqtelegram-ae.so.1:_ZN2Tg9Functions7Account25getPasswordSettingsResultEP10InboundPkt
libqtelegram-ae.so.1:_ZN2Tg9Functions7Account25resetNotifySettingsResultEP10InboundPkt
libqtelegram-ae.so.1:_ZN2Tg9Functions7Account25sendChangePhoneCodeResultEP10InboundPkt
libqtelegram-ae.so.1:_ZN2Tg9Functions7Account26updateNotifySettingsResultEP10InboundPkt
libqtelegram-ae.so.1:_ZN2Tg9Functions7Account28updatePasswordSettingsResultEP10InboundPkt
libqtelegram-ae.so.1:_ZN2Tg9Functions7AccountC1Ev
libqtelegram-ae.so.1:_ZN2Tg9Functions7AccountC2Ev
libqtelegram-ae.so.1:_ZN2Tg9Functions7AccountD0Ev
libqtelegram-ae.so.1:_ZN2Tg9Functions7AccountD1Ev
libqtelegram-ae.so.1:_ZN2Tg9Functions7AccountD2Ev
libqtelegram-ae.so.1:_ZN2Tg9Functions7Updates13getDifferenceEP11OutboundPktiii
libqtelegram-ae.so.1:_ZN2Tg9Functions7Updates14getStateResultEP10InboundPkt
libqtelegram-ae.so.1:_ZN2Tg9Functions7Updates19getDifferenceResultEP10InboundPkt
libqtelegram-ae.so.1:_ZN2Tg9Functions7Updates8getStateEP11OutboundPkt
libqtelegram-ae.so.1:_ZN2Tg9Functions7UpdatesC1Ev
libqtelegram-ae.so.1:_ZN2Tg9Functions7UpdatesC2Ev
libqtelegram-ae.so.1:_ZN2Tg9Functions7UpdatesD0Ev
libqtelegram-ae.so.1:_ZN2Tg9Functions7UpdatesD1Ev
libqtelegram-ae.so.1:_ZN2Tg9Functions7UpdatesD2Ev
libqtelegram-ae.so.1:_ZN2Tg9Functions8Contacts10exportCardEP11OutboundPkt
libqtelegram-ae.so.1:_ZN2Tg9Functions8Contacts10getBlockedEP11OutboundPktii
libqtelegram-ae.so.1:_ZN2Tg9Functions8Contacts10importCardEP11OutboundPktRK5QListIiE
libqtelegram-ae.so.1:_ZN2Tg9Functions8Contacts11blockResultEP10InboundPkt
libqtelegram-ae.so.1:_ZN2Tg9Functions8Contacts11getContactsEP11OutboundPktRK7QString
libqtelegram-ae.so.1:_ZN2Tg9Functions8Contacts11getStatusesEP11OutboundPkt
libqtelegram-ae.so.1:_ZN2Tg9Functions8Contacts12getSuggestedEP11OutboundPkti
libqtelegram-ae.so.1:_ZN2Tg9Functions8Contacts12searchResultEP10InboundPkt
libqtelegram-ae.so.1:_ZN2Tg9Functions8Contacts13deleteContactEP11OutboundPktRK9InputUser
libqtelegram-ae.so.1:_ZN2Tg9Functions8Contacts13unblockResultEP10InboundPkt
libqtelegram-ae.so.1:_ZN2Tg9Functions8Contacts14deleteContactsEP11OutboundPktRK5QListI9InputUserE
libqtelegram-ae.so.1:_ZN2Tg9Functions8Contacts14importContactsEP11OutboundPktRK5QListI12InputContactEb
libqtelegram-ae.so.1:_ZN2Tg9Functions8Contacts15resolveUsernameEP11OutboundPktRK7QString
libqtelegram-ae.so.1:_ZN2Tg9Functions8Contacts16exportCardResultEP10InboundPkt
libqtelegram-ae.so.1:_ZN2Tg9Functions8Contacts16getBlockedResultEP10InboundPkt
libqtelegram-ae.so.1:_ZN2Tg9Functions8Contacts16importCardResultEP10InboundPkt
libqtelegram-ae.so.1:_ZN2Tg9Functions8Contacts17getContactsResultEP10InboundPkt
libqtelegram-ae.so.1:_ZN2Tg9Functions8Contacts17getStatusesResultEP10InboundPkt
libqtelegram-ae.so.1:_ZN2Tg9Functions8Contacts18getSuggestedResultEP10InboundPkt
libqtelegram-ae.so.1:_ZN2Tg9Functions8Contacts19deleteContactResultEP10InboundPkt
libqtelegram-ae.so.1:_ZN2Tg9Functions8Contacts20deleteContactsResultEP10InboundPkt
libqtelegram-ae.so.1:_ZN2Tg9Functions8Contacts20importContactsResultEP10InboundPkt
libqtelegram-ae.so.1:_ZN2Tg9Functions8Contacts21resolveUsernameResultEP10InboundPkt
libqtelegram-ae.so.1:_ZN2Tg9Functions8Contacts5blockEP11OutboundPktRK9InputUser
libqtelegram-ae.so.1:_ZN2Tg9Functions8Contacts6searchEP11OutboundPktRK7QStringi
libqtelegram-ae.so.1:_ZN2Tg9Functions8Contacts7unblockEP11OutboundPktRK9InputUser
libqtelegram-ae.so.1:_ZN2Tg9Functions8ContactsC1Ev
libqtelegram-ae.so.1:_ZN2Tg9Functions8ContactsC2Ev
libqtelegram-ae.so.1:_ZN2Tg9Functions8ContactsD0Ev
libqtelegram-ae.so.1:_ZN2Tg9Functions8ContactsD1Ev
libqtelegram-ae.so.1:_ZN2Tg9Functions8ContactsD2Ev
libqtelegram-ae.so.1:_ZN2Tg9Functions8Geochats10getHistoryEP11OutboundPktRK12InputGeoChatiii
libqtelegram-ae.so.1:_ZN2Tg9Functions8Geochats10getLocatedEP11OutboundPktRK13InputGeoPointii
libqtelegram-ae.so.1:_ZN2Tg9Functions8Geochats10getRecentsEP11OutboundPktii
libqtelegram-ae.so.1:_ZN2Tg9Functions8Geochats11getFullChatEP11OutboundPktRK12InputGeoChat
libqtelegram-ae.so.1:_ZN2Tg9Functions8Geochats11sendMessageEP11OutboundPktRK12InputGeoChatRK7QStringx
libqtelegram-ae.so.1:_ZN2Tg9Functions8Geochats12searchResultEP10InboundPkt
libqtelegram-ae.so.1:_ZN2Tg9Functions8Geochats13checkinResultEP10InboundPkt
libqtelegram-ae.so.1:_ZN2Tg9Functions8Geochats13createGeoChatEP11OutboundPktRK7QStringRK13InputGeoPointS6_S6_
libqtelegram-ae.so.1:_ZN2Tg9Functions8Geochats13editChatPhotoEP11OutboundPktRK12InputGeoChatRK14InputChatPhoto
libqtelegram-ae.so.1:_ZN2Tg9Functions8Geochats13editChatTitleEP11OutboundPktRK12InputGeoChatRK7QStringS9_
libqtelegram-ae.so.1:_ZN2Tg9Functions8Geochats15sendMediaResultEP10InboundPkt
libqtelegram-ae.so.1:_ZN2Tg9Functions8Geochats15setTypingResultEP10InboundPkt
libqtelegram-ae.so.1:_ZN2Tg9Functions8Geochats16getHistoryResultEP10InboundPkt
libqtelegram-ae.so.1:_ZN2Tg9Functions8Geochats16getLocatedResultEP10InboundPkt
libqtelegram-ae.so.1:_ZN2Tg9Functions8Geochats16getRecentsResultEP10InboundPkt
libqtelegram-ae.so.1:_ZN2Tg9Functions8Geochats17getFullChatResultEP10InboundPkt
libqtelegram-ae.so.1:_ZN2Tg9Functions8Geochats17sendMessageResultEP10InboundPkt
libqtelegram-ae.so.1:_ZN2Tg9Functions8Geochats19createGeoChatResultEP10InboundPkt
libqtelegram-ae.so.1:_ZN2Tg9Functions8Geochats19editChatPhotoResultEP10InboundPkt
libqtelegram-ae.so.1:_ZN2Tg9Functions8Geochats19editChatTitleResultEP10InboundPkt
libqtelegram-ae.so.1:_ZN2Tg9Functions8Geochats6searchEP11OutboundPktRK12InputGeoChatRK7QStringRK14MessagesFilteriiiii
libqtelegram-ae.so.1:_ZN2Tg9Functions8Geochats7checkinEP11OutboundPktRK12InputGeoChat
libqtelegram-ae.so.1:_ZN2Tg9Functions8Geochats9sendMediaEP11OutboundPktRK12InputGeoChatRK10InputMediax
libqtelegram-ae.so.1:_ZN2Tg9Functions8Geochats9setTypingEP11OutboundPktRK12InputGeoChatb
libqtelegram-ae.so.1:_ZN2Tg9Functions8GeochatsC1Ev
libqtelegram-ae.so.1:_ZN2Tg9Functions8GeochatsC2Ev
libqtelegram-ae.so.1:_ZN2Tg9Functions8GeochatsD0Ev
libqtelegram-ae.so.1:_ZN2Tg9Functions8GeochatsD1Ev
libqtelegram-ae.so.1:_ZN2Tg9Functions8GeochatsD2Ev
libqtelegram-ae.so.1:_ZN2Tg9Functions8Messages10createChatEP11OutboundPktRK5QListI9InputUserERK7QString
libqtelegram-ae.so.1:_ZN2Tg9Functions8Messages10getDialogsEP11OutboundPktiii
libqtelegram-ae.so.1:_ZN2Tg9Functions8Messages10getHistoryEP11OutboundPktRK9InputPeeriii
libqtelegram-ae.so.1:_ZN2Tg9Functions8Messages11addChatUserEP11OutboundPktiRK9InputUseri
libqtelegram-ae.so.1:_ZN2Tg9Functions8Messages11getDhConfigEP11OutboundPktii
libqtelegram-ae.so.1:_ZN2Tg9Functions8Messages11getFullChatEP11OutboundPkti
libqtelegram-ae.so.1:_ZN2Tg9Functions8Messages11getMessagesEP11OutboundPktRK5QListIiE
libqtelegram-ae.so.1:_ZN2Tg9Functions8Messages11getStickersEP11OutboundPktRK7QStringS6_
libqtelegram-ae.so.1:_ZN2Tg9Functions8Messages11readHistoryEP11OutboundPktRK9InputPeerii
libqtelegram-ae.so.1:_ZN2Tg9Functions8Messages11sendMessageEP11OutboundPktiRK9InputPeeriRK7QStringx
libqtelegram-ae.so.1:_ZN2Tg9Functions8Messages12searchResultEP10InboundPkt
libqtelegram-ae.so.1:_ZN2Tg9Functions8Messages13deleteHistoryEP11OutboundPktRK9InputPeeri
libqtelegram-ae.so.1:_ZN2Tg9Functions8Messages13editChatPhotoEP11OutboundPktiRK14InputChatPhoto
libqtelegram-ae.so.1:_ZN2Tg9Functions8Messages13editChatTitleEP11OutboundPktiRK7QString
libqtelegram-ae.so.1:_ZN2Tg9Functions8Messages13getStickerSetEP11OutboundPktRK15InputStickerSet
libqtelegram-ae.so.1:_ZN2Tg9Functions8Messages13receivedQueueEP11OutboundPkti
libqtelegram-ae.so.1:_ZN2Tg9Functions8Messages13sendBroadcastEP11OutboundPktRK5QListI9InputUserERKS4_IxERK7QStringRK10InputMedia
libqtelegram-ae.so.1:_ZN2Tg9Functions8Messages13sendEncryptedEP11OutboundPktRK18InputEncryptedChatxRK10QByteArray
libqtelegram-ae.so.1:_ZN2Tg9Functions8Messages14deleteChatUserEP11OutboundPktiRK9InputUser
libqtelegram-ae.so.1:_ZN2Tg9Functions8Messages14deleteMessagesEP11OutboundPktRK5QListIiE
libqtelegram-ae.so.1:_ZN2Tg9Functions8Messages14forwardMessageEP11OutboundPktRK9InputPeerix
libqtelegram-ae.so.1:_ZN2Tg9Functions8Messages14getAllStickersEP11OutboundPktRK7QString
libqtelegram-ae.so.1:_ZN2Tg9Functions8Messages14getChatsResultEP10InboundPkt
libqtelegram-ae.so.1:_ZN2Tg9Functions8Messages15checkChatInviteEP11OutboundPktRK7QString
libqtelegram-ae.so.1:_ZN2Tg9Functions8Messages15forwardMessagesEP11OutboundPktRK9InputPeerRK5QListIiERKS7_IxE
libqtelegram-ae.so.1:_ZN2Tg9Functions8Messages15sendMediaResultEP10InboundPkt
libqtelegram-ae.so.1:_ZN2Tg9Functions8Messages15setTypingResultEP10InboundPkt
libqtelegram-ae.so.1:_ZN2Tg9Functions8Messages16acceptEncryptionEP11OutboundPktRK18InputEncryptedChatRK10QByteArrayx
libqtelegram-ae.so.1:_ZN2Tg9Functions8Messages16createChatResultEP10InboundPkt
libqtelegram-ae.so.1:_ZN2Tg9Functions8Messages16exportChatInviteEP11OutboundPkti
libqtelegram-ae.so.1:_ZN2Tg9Functions8Messages16getDialogsResultEP10InboundPkt
libqtelegram-ae.so.1:_ZN2Tg9Functions8Messages16getHistoryResultEP10InboundPkt
libqtelegram-ae.so.1:_ZN2Tg9Functions8Messages16importChatInviteEP11OutboundPktRK7QString
libqtelegram-ae.so.1:_ZN2Tg9Functions8Messages16receivedMessagesEP11OutboundPkti
libqtelegram-ae.so.1:_ZN2Tg9Functions8Messages17addChatUserResultEP10InboundPkt
libqtelegram-ae.so.1:_ZN2Tg9Functions8Messages17discardEncryptionEP11OutboundPkti
libqtelegram-ae.so.1:_ZN2Tg9Functions8Messages17getDhConfigResultEP10InboundPkt
libqtelegram-ae.so.1:_ZN2Tg9Functions8Messages17getFullChatResultEP10InboundPkt
libqtelegram-ae.so.1:_ZN2Tg9Functions8Messages17getMessagesResultEP10InboundPkt
libqtelegram-ae.so.1:_ZN2Tg9Functions8Messages17getStickersResultEP10InboundPkt
libqtelegram-ae.so.1:_ZN2Tg9Functions8Messages17getWebPagePreviewEP11OutboundPktRK7QString
libqtelegram-ae.so.1:_ZN2Tg9Functions8Messages17installStickerSetEP11OutboundPktRK15InputStickerSet
libqtelegram-ae.so.1:_ZN2Tg9Functions8Messages17readHistoryResultEP10InboundPkt
libqtelegram-ae.so.1:_ZN2Tg9Functions8Messages17requestEncryptionEP11OutboundPktRK9InputUseriRK10QByteArray
libqtelegram-ae.so.1:_ZN2Tg9Functions8Messages17sendEncryptedFileEP11OutboundPktRK18InputEncryptedChatxRK10QByteArrayRK18InputEncryptedFile
libqtelegram-ae.so.1:_ZN2Tg9Functions8Messages17sendMessageResultEP10InboundPkt
libqtelegram-ae.so.1:_ZN2Tg9Functions8Messages18setEncryptedTypingEP11OutboundPktRK18InputEncryptedChatb
libqtelegram-ae.so.1:_ZN2Tg9Functions8Messages19deleteHistoryResultEP10InboundPkt
libqtelegram-ae.so.1:_ZN2Tg9Functions8Messages19editChatPhotoResultEP10InboundPkt
libqtelegram-ae.so.1:_ZN2Tg9Functions8Messages19editChatTitleResultEP10InboundPkt
libqtelegram-ae.so.1:_ZN2Tg9Functions8Messages19getStickerSetResultEP10InboundPkt
libqtelegram-ae.so.1:_ZN2Tg9Functions8Messages19readMessageContentsEP11OutboundPktRK5QListIiE
libqtelegram-ae.so.1:_ZN2Tg9Functions8Messages19receivedQueueResultEP10InboundPkt
libqtelegram-ae.so.1:_ZN2Tg9Functions8Messages19sendBroadcastResultEP10InboundPkt
libqtelegram-ae.so.1:_ZN2Tg9Functions8Messages19sendEncryptedResultEP10InboundPkt
libqtelegram-ae.so.1:_ZN2Tg9Functions8Messages19uninstallStickerSetEP11OutboundPktRK15InputStickerSet
libqtelegram-ae.so.1:_ZN2Tg9Functions8Messages20deleteChatUserResultEP10InboundPkt
libqtelegram-ae.so.1:_ZN2Tg9Functions8Messages20deleteMessagesResultEP10InboundPkt
libqtelegram-ae.so.1:_ZN2Tg9Functions8Messages20forwardMessageResultEP10InboundPkt
libqtelegram-ae.so.1:_ZN2Tg9Functions8Messages20getAllStickersResultEP10InboundPkt
libqtelegram-ae.so.1:_ZN2Tg9Functions8Messages20readEncryptedHistoryEP11OutboundPktRK18InputEncryptedChati
libqtelegram-ae.so.1:_ZN2Tg9Functions8Messages20sendEncryptedServiceEP11OutboundPktRK18InputEncryptedChatxRK10QByteArray
libqtelegram-ae.so.1:_ZN2Tg9Functions8Messages21checkChatInviteResultEP10InboundPkt
libqtelegram-ae.so.1:_ZN2Tg9Functions8Messages21forwardMessagesResultEP10InboundPkt
libqtelegram-ae.so.1:_ZN2Tg9Functions8Messages22acceptEncryptionResultEP10InboundPkt
libqtelegram-ae.so.1:_ZN2Tg9Functions8Messages22exportChatInviteResultEP10InboundPkt
libqtelegram-ae.so.1:_ZN2Tg9Functions8Messages22importChatInviteResultEP10InboundPkt
libqtelegram-ae.so.1:_ZN2Tg9Functions8Messages22receivedMessagesResultEP10InboundPkt
libqtelegram-ae.so.1:_ZN2Tg9Functions8Messages23discardEncryptionResultEP10InboundPkt
libqtelegram-ae.so.1:_ZN2Tg9Functions8Messages23getWebPagePreviewResultEP10InboundPkt
libqtelegram-ae.so.1:_ZN2Tg9Functions8Messages23installStickerSetResultEP10InboundPkt
libqtelegram-ae.so.1:_ZN2Tg9Functions8Messages23requestEncryptionResultEP10InboundPkt
libqtelegram-ae.so.1:_ZN2Tg9Functions8Messages23sendEncryptedFileResultEP10InboundPkt
libqtelegram-ae.so.1:_ZN2Tg9Functions8Messages24setEncryptedTypingResultEP10InboundPkt
libqtelegram-ae.so.1:_ZN2Tg9Functions8Messages25readMessageContentsResultEP10InboundPkt
libqtelegram-ae.so.1:_ZN2Tg9Functions8Messages25uninstallStickerSetResultEP10InboundPkt
libqtelegram-ae.so.1:_ZN2Tg9Functions8Messages26readEncryptedHistoryResultEP10InboundPkt
libqtelegram-ae.so.1:_ZN2Tg9Functions8Messages26sendEncryptedServiceResultEP10InboundPkt
libqtelegram-ae.so.1:_ZN2Tg9Functions8Messages6searchEP11OutboundPktRK9InputPeerRK7QStringRK14MessagesFilteriiiii
libqtelegram-ae.so.1:_ZN2Tg9Functions8Messages8getChatsEP11OutboundPktRK5QListIiE
libqtelegram-ae.so.1:_ZN2Tg9Functions8Messages9sendMediaEP11OutboundPktiRK9InputPeeriRK10InputMediax
libqtelegram-ae.so.1:_ZN2Tg9Functions8Messages9setTypingEP11OutboundPktRK9InputPeerRK17SendMessageAction
libqtelegram-ae.so.1:_ZN2Tg9Functions8MessagesC1Ev
libqtelegram-ae.so.1:_ZN2Tg9Functions8MessagesC2Ev
libqtelegram-ae.so.1:_ZN2Tg9Functions8MessagesD0Ev
libqtelegram-ae.so.1:_ZN2Tg9Functions8MessagesD1Ev
libqtelegram-ae.so.1:_ZN2Tg9Functions8MessagesD2Ev
libqtelegram-ae.so.1:_ZN3Api10authLogOutEv
libqtelegram-ae.so.1:_ZN3Api10authSignInERK7QStringS2_S2_
libqtelegram-ae.so.1:_ZN3Api10authSignUpERK7QStringS2_S2_S2_S2_
libqtelegram-ae.so.1:_ZN3Api10errorRetryExiRK7QString
libqtelegram-ae.so.1:_ZN3Api10uploadFileExRK15StorageFileTypei10QByteArray
libqtelegram-ae.so.1:_ZN3Api11accountUserExRK4User
libqtelegram-ae.so.1:_ZN3Api11authSendSmsERK7QStringS2_
libqtelegram-ae.so.1:_ZN3Api11photosPhotoExRK5PhotoRK5QListI4UserE
libqtelegram-ae.so.1:_ZN3Api11qt_metacallEN11QMetaObject4CallEiPPv
libqtelegram-ae.so.1:_ZN3Api11qt_metacastEPKc
libqtelegram-ae.so.1:_ZN3Api12authSendCallERK7QStringS2_
libqtelegram-ae.so.1:_ZN3Api12authSendCodeERK7QStringiiS2_S2_
libqtelegram-ae.so.1:_ZN3Api12authSentCodeExbRK7QStringib
libqtelegram-ae.so.1:_ZN3Api12onErrorRetryEP5QueryiRK7QString
libqtelegram-ae.so.1:_ZN3Api12photosPhotosExRK5QListI5PhotoERKS0_I4UserE
libqtelegram-ae.so.1:_ZN3Api12updatesStateExiiiii
libqtelegram-ae.so.1:_ZN3Api13contactsBlockERK9InputUser
libqtelegram-ae.so.1:_ZN3Api13contactsFoundExRK5QListI12ContactFoundERKS0_I4UserE
libqtelegram-ae.so.1:_ZN3Api13helpGetConfigEv
libqtelegram-ae.so.1:_ZN3Api13messagesChatsExRK5QListI4ChatE
libqtelegram-ae.so.1:_ZN3Api13uploadGetFileEP7SessionRK17InputFileLocationii
libqtelegram-ae.so.1:_ZN3Api13usersGetUsersERK5QListI9InputUserE
libqtelegram-ae.so.1:_ZN3Api14authCheckPhoneERK7QString
libqtelegram-ae.so.1:_ZN3Api14contactsSearchERK7QStringi
libqtelegram-ae.so.1:_ZN3Api14messagesSearchERK9InputPeerRK7QStringRK14MessagesFilteriiiii
libqtelegram-ae.so.1:_ZN3Api15authSendInvitesERK11QStringListRK7QString
libqtelegram-ae.so.1:_ZN3Api15authSentAppCodeExbRK7QStringib
libqtelegram-ae.so.1:_ZN3Api15authSignInErrorExiRK7QString
libqtelegram-ae.so.1:_ZN3Api15authSignUpErrorExiRK7QString
libqtelegram-ae.so.1:_ZN3Api15contactsBlockedExRK5QListI14ContactBlockedERKS0_I4UserE
libqtelegram-ae.so.1:_ZN3Api15contactsUnblockERK9InputUser
libqtelegram-ae.so.1:_ZN3Api15messagesDialogsExRK5QListI6DialogERKS0_I7MessageERKS0_I4ChatERKS0_I4UserE
libqtelegram-ae.so.1:_ZN3Api15updatesGetStateEv
libqtelegram-ae.so.1:_ZN3Api15uploadFileErrorExiRK7QString
libqtelegram-ae.so.1:_ZN3Api16authCheckedPhoneExb
libqtelegram-ae.so.1:_ZN3Api16authLogOutResultExb
libqtelegram-ae.so.1:_ZN3Api16contactsContactsExRK5QListI7ContactERKS0_I4UserE
libqtelegram-ae.so.1:_ZN3Api16messagesChatFullExRK8ChatFullRK5QListI4ChatERKS3_I4UserE
libqtelegram-ae.so.1:_ZN3Api16messagesDhConfigExiRK10QByteArrayiS2_
libqtelegram-ae.so.1:_ZN3Api16messagesGetChatsERK5QListIiE
libqtelegram-ae.so.1:_ZN3Api16usersGetFullUserERK9InputUser
libqtelegram-ae.so.1:_ZN3Api17accountGetPrivacyERK15InputPrivacyKey
libqtelegram-ae.so.1:_ZN3Api17accountSetPrivacyERK15InputPrivacyKeyRK5QListI16InputPrivacyRuleE
libqtelegram-ae.so.1:_ZN3Api17authCheckPasswordERK10QByteArray
libqtelegram-ae.so.1:_ZN3Api17authSendCodeErrorEx
libqtelegram-ae.so.1:_ZN3Api17authSendSmsResultExb
libqtelegram-ae.so.1:_ZN3Api17helpGetInviteTextERK7QString
libqtelegram-ae.so.1:_ZN3Api17messagesSendMediaERK9InputPeerRK10InputMediaxi
libqtelegram-ae.so.1:_ZN3Api17messagesSentMediaExRK11UpdatesType
libqtelegram-ae.so.1:_ZN3Api17messagesSetTypingERK9InputPeerRK17SendMessageAction
libqtelegram-ae.so.1:_ZN3Api17onAuthSignInErrorEP5QueryiRK7QString
libqtelegram-ae.so.1:_ZN3Api17onAuthSignUpErrorEP5QueryiRK7QString
libqtelegram-ae.so.1:_ZN3Api17photosPhotosSliceExiRK5QListI5PhotoERKS0_I4UserE
libqtelegram-ae.so.1:_ZN3Api17updatesDifferenceExRK5QListI7MessageERKS0_I16EncryptedMessageERKS0_I6UpdateERKS0_I4ChatERKS0_I4UserERK12UpdatesState
libqtelegram-ae.so.1:_ZN3Api18accountChangePhoneERK7QStringS2_S2_
libqtelegram-ae.so.1:_ZN3Api18accountGetPasswordEv
libqtelegram-ae.so.1:_ZN3Api18authCheckPhoneSentExRK7QString
libqtelegram-ae.so.1:_ZN3Api18authSendCallResultExb
libqtelegram-ae.so.1:_ZN3Api18contactsGetBlockedEii
libqtelegram-ae.so.1:_ZN3Api18messagesCreateChatERK5QListI9InputUserERK7QString
libqtelegram-ae.so.1:_ZN3Api18messagesGetDialogsEiii
libqtelegram-ae.so.1:_ZN3Api18messagesGetHistoryERK9InputPeeriii
libqtelegram-ae.so.1:_ZN3Api18onAuthLogOutAnswerEP5QueryR10InboundPkt
libqtelegram-ae.so.1:_ZN3Api18onAuthSignInAnswerEP5QueryR10InboundPkt
libqtelegram-ae.so.1:_ZN3Api18onAuthSignUpAnswerEP5QueryR10InboundPkt
libqtelegram-ae.so.1:_ZN3Api18uploadSaveFilePartEP7SessionxiRK10QByteArray
libqtelegram-ae.so.1:_ZN3Api19accountUpdateStatusEb
libqtelegram-ae.so.1:_ZN3Api19authRecoverPasswordERK7QString
libqtelegram-ae.so.1:_ZN3Api19contactsBlockResultExb
libqtelegram-ae.so.1:_ZN3Api19contactsGetContactsERK7QString
libqtelegram-ae.so.1:_ZN3Api19contactsGetStatusesEv
libqtelegram-ae.so.1:_ZN3Api19messagesAddChatUserEiRK9InputUseri
libqtelegram-ae.so.1:_ZN3Api19messagesCreatedChatExRK11UpdatesType
libqtelegram-ae.so.1:_ZN3Api19messagesDeletedChatExRK11UpdatesType
libqtelegram-ae.so.1:_ZN3Api19messagesGetDhConfigEii
libqtelegram-ae.so.1:_ZN3Api19messagesGetFullChatEi
libqtelegram-ae.so.1:_ZN3Api19messagesGetMessagesERK5QListIiE
libqtelegram-ae.so.1:_ZN3Api19messagesGetStickersERK7QStringS2_
libqtelegram-ae.so.1:_ZN3Api19messagesReadHistoryERK9InputPeerii
libqtelegram-ae.so.1:_ZN3Api19messagesSendMessageERK9InputPeerRK7QStringxi
libqtelegram-ae.so.1:_ZN3Api19messagesSentMessageExiiRK12MessageMediaiii
libqtelegram-ae.so.1:_ZN3Api19onAuthSendSmsAnswerEP5QueryR10InboundPkt
libqtelegram-ae.so.1:_ZN3Api19photosGetUserPhotosERK9InputUseriii
libqtelegram-ae.so.1:_ZN3Api19usersGetUsersResultExRK5QListI4UserE
libqtelegram-ae.so.1:_ZN3Api20accountCheckUsernameERK7QString
libqtelegram-ae.so.1:_ZN3Api20accountDeleteAccountERK7QString
libqtelegram-ae.so.1:_ZN3Api20accountGetAccountTTLEv
libqtelegram-ae.so.1:_ZN3Api20accountGetWallPapersEv
libqtelegram-ae.so.1:_ZN3Api20accountSetAccountTTLERK14AccountDaysTTL
libqtelegram-ae.so.1:_ZN3Api20accountUpdateProfileERK7QStringS2_
libqtelegram-ae.so.1:_ZN3Api20contactsBlockedSliceExiRK5QListI14ContactBlockedERKS0_I4UserE
libqtelegram-ae.so.1:_ZN3Api20messagesDialogsSliceExiRK5QListI6DialogERKS0_I7MessageERKS0_I4ChatERKS0_I4UserE
libqtelegram-ae.so.1:_ZN3Api20messagesForwardMediaERK9InputPeerRK10InputMediaxi
libqtelegram-ae.so.1:_ZN3Api20onAuthSendCallAnswerEP5QueryR10InboundPkt
libqtelegram-ae.so.1:_ZN3Api20onAuthSendCodeAnswerEP5QueryR10InboundPkt
libqtelegram-ae.so.1:_ZN3Api20onUploadGetFileErrorEP5QueryiRK7QString
libqtelegram-ae.so.1:_ZN3Api20updatesGetDifferenceEiii
libqtelegram-ae.so.1:_ZN3Api21accountRegisterDeviceEiRK7QStringS2_S2_S2_bS2_
libqtelegram-ae.so.1:_ZN3Api21accountUpdateUsernameERK7QString
libqtelegram-ae.so.1:_ZN3Api21authCheckedPhoneErrorEx
libqtelegram-ae.so.1:_ZN3Api21authSendInvitesResultExb
libqtelegram-ae.so.1:_ZN3Api21contactsDeleteContactERK9InputUser
libqtelegram-ae.so.1:_ZN3Api21contactsUnblockResultExb
libqtelegram-ae.so.1:_ZN3Api21messagesAddedChatUserExRK11UpdatesType
libqtelegram-ae.so.1:_ZN3Api21messagesDeleteHistoryERK9InputPeeri
libqtelegram-ae.so.1:_ZN3Api21messagesEditChatPhotoEiRK14InputChatPhoto
libqtelegram-ae.so.1:_ZN3Api21messagesEditChatTitleEiRK7QString
libqtelegram-ae.so.1:_ZN3Api21messagesGetStickerSetERK15InputStickerSet
libqtelegram-ae.so.1:_ZN3Api21messagesReceivedQueueEi
libqtelegram-ae.so.1:_ZN3Api21messagesSendBroadcastERK5QListI9InputUserERKS0_IxERK7QStringRK10InputMedia
libqtelegram-ae.so.1:_ZN3Api21messagesSendEncryptedERK5QListIxERK18InputEncryptedChatx10QByteArray
libqtelegram-ae.so.1:_ZN3Api21messagesSentBroadcastExRK11UpdatesType
libqtelegram-ae.so.1:_ZN3Api21onContactsBlockAnswerEP5QueryR10InboundPkt
libqtelegram-ae.so.1:_ZN3Api21onHelpGetConfigAnswerEP5QueryR10InboundPkt
libqtelegram-ae.so.1:_ZN3Api21onPhotosGetUserPhotosEP5QueryR10InboundPkt
libqtelegram-ae.so.1:_ZN3Api21onUploadGetFileAnswerEP5QueryR10InboundPkt
libqtelegram-ae.so.1:_ZN3Api21onUsersGetUsersAnswerEP5QueryR10InboundPkt
libqtelegram-ae.so.1:_ZN3Api21uploadSaveBigFilePartEP7SessionxiiRK10QByteArray
libqtelegram-ae.so.1:_ZN3Api22accountGetPrivacyRulesExRK5QListI11PrivacyRuleERKS0_I4UserE
libqtelegram-ae.so.1:_ZN3Api22accountSetPrivacyRulesExRK5QListI11PrivacyRuleERKS0_I4UserE
libqtelegram-ae.so.1:_ZN3Api22contactsDeleteContactsERK5QListI9InputUserE
libqtelegram-ae.so.1:_ZN3Api22contactsImportContactsERK5QListI12InputContactEb
libqtelegram-ae.so.1:_ZN3Api22messagesDeleteChatUserEiRK9InputUser
libqtelegram-ae.so.1:_ZN3Api22messagesDeleteMessagesERK5QListIiE
libqtelegram-ae.so.1:_ZN3Api22messagesForwardMessageERK9InputPeerix
libqtelegram-ae.so.1:_ZN3Api22messagesForwardedMediaExRK11UpdatesType
libqtelegram-ae.so.1:_ZN3Api22messagesGetAllStickersERK7QString
libqtelegram-ae.so.1:_ZN3Api22messagesSearchMessagesExRK5QListI7MessageERKS0_I4ChatERKS0_I4UserE
libqtelegram-ae.so.1:_ZN3Api22onAuthCheckPhoneAnswerEP5QueryR10InboundPkt
libqtelegram-ae.so.1:_ZN3Api22onContactsSearchAnswerEP5QueryR10InboundPkt
libqtelegram-ae.so.1:_ZN3Api22onMessagesSearchAnswerEP5QueryR10InboundPkt
libqtelegram-ae.so.1:_ZN3Api22photosUserProfilePhotoExRK16UserProfilePhoto
libqtelegram-ae.so.1:_ZN3Api22updatesDifferenceEmptyExii
libqtelegram-ae.so.1:_ZN3Api22updatesDifferenceSliceExRK5QListI7MessageERKS0_I16EncryptedMessageERKS0_I6UpdateERKS0_I4ChatERKS0_I4UserERK12UpdatesState
libqtelegram-ae.so.1:_ZN3Api23accountUnregisterDeviceEiRK7QString
libqtelegram-ae.so.1:_ZN3Api23authCheckPasswordResultExiRK4User
libqtelegram-ae.so.1:_ZN3Api23authExportAuthorizationEi
libqtelegram-ae.so.1:_ZN3Api23authImportAuthorizationEiRK10QByteArray
libqtelegram-ae.so.1:_ZN3Api23authResetAuthorizationsEv
libqtelegram-ae.so.1:_ZN3Api23authSignInAuthorizationExiRK4User
libqtelegram-ae.so.1:_ZN3Api23authSignUpAuthorizationExiRK4User
libqtelegram-ae.so.1:_ZN3Api23contactsResolveUsernameERK7QString
libqtelegram-ae.so.1:_ZN3Api23helpGetInviteTextAnswerExRK7QString
libqtelegram-ae.so.1:_ZN3Api23messagesCheckChatInviteERK7QString
libqtelegram-ae.so.1:_ZN3Api23messagesEditedChatPhotoExRK11UpdatesType
libqtelegram-ae.so.1:_ZN3Api23messagesEditedChatTitleExRK11UpdatesType
libqtelegram-ae.so.1:_ZN3Api23messagesForwardMessagesERK9InputPeerRK5QListIiERKS3_IxE
libqtelegram-ae.so.1:_ZN3Api23messagesSentMessageLinkExiiRK12MessageMediaiiiRK5QListI12ContactsLinkE
libqtelegram-ae.so.1:_ZN3Api23messagesSetTypingResultExb
libqtelegram-ae.so.1:_ZN3Api23onAuthSendInvitesAnswerEP5QueryR10InboundPkt
libqtelegram-ae.so.1:_ZN3Api23onContactsUnblockAnswerEP5QueryR10InboundPkt
libqtelegram-ae.so.1:_ZN3Api23onUpdatesGetStateAnswerEP5QueryR10InboundPkt
libqtelegram-ae.so.1:_ZN3Api24accountChangePhoneResultExRK4User
libqtelegram-ae.so.1:_ZN3Api24accountGetAuthorizationsEv
libqtelegram-ae.so.1:_ZN3Api24accountGetNotifySettingsERK15InputNotifyPeer
libqtelegram-ae.so.1:_ZN3Api24accountGetPasswordResultExRK15AccountPassword
libqtelegram-ae.so.1:_ZN3Api24contactsImportedContactsExRK5QListI15ImportedContactERKS0_IxERKS0_I4UserE
libqtelegram-ae.so.1:_ZN3Api24messagesAcceptEncryptionERK18InputEncryptedChat10QByteArrayx
libqtelegram-ae.so.1:_ZN3Api24messagesExportChatInviteEi
libqtelegram-ae.so.1:_ZN3Api24messagesForwardedMessageExRK11UpdatesType
libqtelegram-ae.so.1:_ZN3Api24messagesImportChatInviteERK7QString
libqtelegram-ae.so.1:_ZN3Api24messagesReceivedMessagesEi
libqtelegram-ae.so.1:_ZN3Api24onAccountGetPrivacyRulesEP5QueryR10InboundPkt
libqtelegram-ae.so.1:_ZN3Api24onAccountSetPrivacyRulesEP5QueryR10InboundPkt
libqtelegram-ae.so.1:_ZN3Api24onMessagesGetChatsAnswerEP5QueryR10InboundPkt
libqtelegram-ae.so.1:_ZN3Api24onUsersGetFullUserAnswerEP5QueryR10InboundPkt
libqtelegram-ae.so.1:_ZN3Api24photosUpdateProfilePhotoERK10InputPhotoRK14InputPhotoCrop
libqtelegram-ae.so.1:_ZN3Api24photosUploadProfilePhotoERK9InputFileRK7QStringRK13InputGeoPointRK14InputPhotoCrop
libqtelegram-ae.so.1:_ZN3Api24uploadSaveFilePartResultExxb
libqtelegram-ae.so.1:_ZN3Api25accountPeerNotifySettingsExRK18PeerNotifySettings
libqtelegram-ae.so.1:_ZN3Api25accountResetAuthorizationEx
libqtelegram-ae.so.1:_ZN3Api25accountUpdateDeviceLockedEi
libqtelegram-ae.so.1:_ZN3Api25accountUpdateStatusResultExb
libqtelegram-ae.so.1:_ZN3Api25authExportedAuthorizationExiRK10QByteArray
libqtelegram-ae.so.1:_ZN3Api25authImportedAuthorizationExiRK4User
libqtelegram-ae.so.1:_ZN3Api25authRecoverPasswordResultExRK17AuthAuthorization
libqtelegram-ae.so.1:_ZN3Api25contactsDeleteContactLinkExRK11ContactLinkS2_RK4User
libqtelegram-ae.so.1:_ZN3Api25contactsGetStatusesResultExRK5QListI13ContactStatusE
libqtelegram-ae.so.1:_ZN3Api25messagesDiscardEncryptionEi
libqtelegram-ae.so.1:_ZN3Api25messagesForwardedMessagesExRK11UpdatesType
libqtelegram-ae.so.1:_ZN3Api25messagesGetStickersResultExRK16MessagesStickers
libqtelegram-ae.so.1:_ZN3Api25messagesGetWebPagePreviewERK7QString
libqtelegram-ae.so.1:_ZN3Api25messagesInstallStickerSetERK15InputStickerSet
libqtelegram-ae.so.1:_ZN3Api25messagesRequestEncryptionERK9InputUseri10QByteArray
libqtelegram-ae.so.1:_ZN3Api25messagesSendEncryptedFileERK5QListIxERK18InputEncryptedChatx10QByteArrayRK18InputEncryptedFile
libqtelegram-ae.so.1:_ZN3Api25onAuthCheckPasswordAnswerEP5QueryR10InboundPkt
libqtelegram-ae.so.1:_ZN3Api25onHelpGetInviteTextAnswerEP5QueryR10InboundPkt
libqtelegram-ae.so.1:_ZN3Api25onMessagesSendMediaAnswerEP5QueryR10InboundPkt
libqtelegram-ae.so.1:_ZN3Api25onMessagesSetTypingAnswerEP5QueryR10InboundPkt
libqtelegram-ae.so.1:_ZN3Api26accountCheckUsernameResultExb
libqtelegram-ae.so.1:_ZN3Api26accountDeleteAccountResultExb
libqtelegram-ae.so.1:_ZN3Api26accountGetAccountTTLResultExRK14AccountDaysTTL
libqtelegram-ae.so.1:_ZN3Api26accountGetPasswordSettingsERK10QByteArray
libqtelegram-ae.so.1:_ZN3Api26accountGetWallPapersResultExRK5QListI9WallPaperE
libqtelegram-ae.so.1:_ZN3Api26accountResetNotifySettingsEv
libqtelegram-ae.so.1:_ZN3Api26accountSendChangePhoneCodeERK7QString
libqtelegram-ae.so.1:_ZN3Api26accountSentChangePhoneCodeExRK7QStringi
libqtelegram-ae.so.1:_ZN3Api26accountSetAccountTTLResultExb
libqtelegram-ae.so.1:_ZN3Api26messagesGetHistoryMessagesExRK5QListI7MessageERKS0_I4ChatERKS0_I4UserE
libqtelegram-ae.so.1:_ZN3Api26messagesSetEncryptedTypingERK18InputEncryptedChatb
libqtelegram-ae.so.1:_ZN3Api26onAccountChangePhoneAnswerEP5QueryR10InboundPkt
libqtelegram-ae.so.1:_ZN3Api26onAccountGetPasswordAnswerEP5QueryR10InboundPkt
libqtelegram-ae.so.1:_ZN3Api26onContactsGetBlockedAnswerEP5QueryR10InboundPkt
libqtelegram-ae.so.1:_ZN3Api26onMessagesCreateChatAnswerEP5QueryR10InboundPkt
libqtelegram-ae.so.1:_ZN3Api26onMessagesGetDialogsAnswerEP5QueryR10InboundPkt
libqtelegram-ae.so.1:_ZN3Api26onMessagesGetHistoryAnswerEP5QueryR10InboundPkt
libqtelegram-ae.so.1:_ZN3Api26onUploadSaveFilePartAnswerEP5QueryR10InboundPkt
libqtelegram-ae.so.1:_ZN3Api27accountRegisterDeviceResultExb
libqtelegram-ae.so.1:_ZN3Api27accountUpdateNotifySettingsERK15InputNotifyPeerRK23InputPeerNotifySettings
libqtelegram-ae.so.1:_ZN3Api27accountUpdateUsernameResultExRK4User
libqtelegram-ae.so.1:_ZN3Api27authRequestPasswordRecoveryEv
libqtelegram-ae.so.1:_ZN3Api27contactsContactsNotModifiedEx
libqtelegram-ae.so.1:_ZN3Api27messagesDhConfigNotModifiedExRK10QByteArray
libqtelegram-ae.so.1:_ZN3Api27messagesGetMessagesMessagesExRK5QListI7MessageERKS0_I4ChatERKS0_I4UserE
libqtelegram-ae.so.1:_ZN3Api27messagesGetStickerSetResultExRK18MessagesStickerSet
libqtelegram-ae.so.1:_ZN3Api27messagesReadAffectedHistoryExiii
libqtelegram-ae.so.1:_ZN3Api27messagesReadMessageContentsERK5QListIiE
libqtelegram-ae.so.1:_ZN3Api27messagesReceivedQueueResultExRK5QListIxE
libqtelegram-ae.so.1:_ZN3Api27messagesSearchMessagesSliceExiRK5QListI7MessageERKS0_I4ChatERKS0_I4UserE
libqtelegram-ae.so.1:_ZN3Api27messagesUninstallStickerSetERK15InputStickerSet
libqtelegram-ae.so.1:_ZN3Api27onAccountUpdateStatusAnswerEP5QueryR10InboundPkt
libqtelegram-ae.so.1:_ZN3Api27onAuthRecoverPasswordAnswerEP5QueryR10InboundPkt
libqtelegram-ae.so.1:_ZN3Api27onContactsGetContactsAnswerEP5QueryR10InboundPkt
libqtelegram-ae.so.1:_ZN3Api27onContactsGetStatusesAnswerEP5QueryR10InboundPkt
libqtelegram-ae.so.1:_ZN3Api27onMessagesAddChatUserAnswerEP5QueryR10InboundPkt
libqtelegram-ae.so.1:_ZN3Api27onMessagesGetDhConfigAnswerEP5QueryR10InboundPkt
libqtelegram-ae.so.1:_ZN3Api27onMessagesGetFullChatAnswerEP5QueryR10InboundPkt
libqtelegram-ae.so.1:_ZN3Api27onMessagesGetMessagesAnswerEP5QueryR10InboundPkt
libqtelegram-ae.so.1:_ZN3Api27onMessagesGetStickersAnswerEP5QueryR10InboundPkt
libqtelegram-ae.so.1:_ZN3Api27onMessagesReadHistoryAnswerEP5QueryR10InboundPkt
libqtelegram-ae.so.1:_ZN3Api27onMessagesSendMessageAnswerEP5QueryR10InboundPkt
libqtelegram-ae.so.1:_ZN3Api27uploadSaveBigFilePartResultExxb
libqtelegram-ae.so.1:_ZN3Api28contactsDeleteContactsResultExb
libqtelegram-ae.so.1:_ZN3Api28messagesDeleteMessagesResultExRK24MessagesAffectedMessages
libqtelegram-ae.so.1:_ZN3Api28messagesGetAllStickersResultExRK19MessagesAllStickers
libqtelegram-ae.so.1:_ZN3Api28messagesReadEncryptedHistoryERK18InputEncryptedChati
libqtelegram-ae.so.1:_ZN3Api28messagesSendEncryptedServiceERK5QListIxERK18InputEncryptedChatx10QByteArray
libqtelegram-ae.so.1:_ZN3Api28messagesSentEncryptedServiceExi
libqtelegram-ae.so.1:_ZN3Api28onAccountCheckUsernameAnswerEP5QueryR10InboundPkt
libqtelegram-ae.so.1:_ZN3Api28onAccountDeleteAccountAnswerEP5QueryR10InboundPkt
libqtelegram-ae.so.1:_ZN3Api28onAccountGetAccountTTLAnswerEP5QueryR10InboundPkt
libqtelegram-ae.so.1:_ZN3Api28onAccountGetWallPapersAnswerEP5QueryR10InboundPkt
libqtelegram-ae.so.1:_ZN3Api28onAccountSentChangePhoneCodeEP5QueryR10InboundPkt
libqtelegram-ae.so.1:_ZN3Api28onAccountSetAccountTTLAnswerEP5QueryR10InboundPkt
libqtelegram-ae.so.1:_ZN3Api28onAccountUpdateProfileAnswerEP5QueryR10InboundPkt
libqtelegram-ae.so.1:_ZN3Api28onMessagesForwardMediaAnswerEP5QueryR10InboundPkt
libqtelegram-ae.so.1:_ZN3Api28onUpdatesGetDifferenceAnswerEP5QueryR10InboundPkt
libqtelegram-ae.so.1:_ZN3Api29accountUnregisterDeviceResultExb
libqtelegram-ae.so.1:_ZN3Api29accountUpdatePasswordSettingsERK10QByteArrayRK28AccountPasswordInputSettings
libqtelegram-ae.so.1:_ZN3Api29authResetAuthorizationsResultExb
libqtelegram-ae.so.1:_ZN3Api29contactsResolveUsernameResultExRK4User
libqtelegram-ae.so.1:_ZN3Api29messagesCheckChatInviteResultExRK10ChatInvite
libqtelegram-ae.so.1:_ZN3Api29messagesDeleteAffectedHistoryExiii
libqtelegram-ae.so.1:_ZN3Api29onAccountRegisterDeviceAnswerEP5QueryR10InboundPkt
libqtelegram-ae.so.1:_ZN3Api29onAccountUpdateUsernameAnswerEP5QueryR10InboundPkt
libqtelegram-ae.so.1:_ZN3Api29onContactsDeleteContactAnswerEP5QueryR10InboundPkt
libqtelegram-ae.so.1:_ZN3Api29onMessagesDeleteHistoryAnswerEP5QueryR10InboundPkt
libqtelegram-ae.so.1:_ZN3Api29onMessagesEditChatPhotoAnswerEP5QueryR10InboundPkt
libqtelegram-ae.so.1:_ZN3Api29onMessagesEditChatTitleAnswerEP5QueryR10InboundPkt
libqtelegram-ae.so.1:_ZN3Api29onMessagesGetStickerSetAnswerEP5QueryR10InboundPkt
libqtelegram-ae.so.1:_ZN3Api29onMessagesReceivedQueueAnswerEP5QueryR10InboundPkt
libqtelegram-ae.so.1:_ZN3Api29onMessagesSendBroadcastAnswerEP5QueryR10InboundPkt
libqtelegram-ae.so.1:_ZN3Api29onMessagesSendEncryptedAnswerEP5QueryR10InboundPkt
libqtelegram-ae.so.1:_ZN3Api29onUploadSaveBigFilePartAnswerEP5QueryR10InboundPkt
libqtelegram-ae.so.1:_ZN3Api30accountGetAuthorizationsResultExRK21AccountAuthorizations
libqtelegram-ae.so.1:_ZN3Api30messagesExportChatInviteResultExRK18ExportedChatInvite
libqtelegram-ae.so.1:_ZN3Api30messagesImportChatInviteResultExRK11UpdatesType
libqtelegram-ae.so.1:_ZN3Api30messagesReceivedMessagesResultExRK5QListI21ReceivedNotifyMessageE
libqtelegram-ae.so.1:_ZN3Api30onContactsDeleteContactsAnswerEP5QueryR10InboundPkt
libqtelegram-ae.so.1:_ZN3Api30onContactsImportContactsAnswerEP5QueryR10InboundPkt
libqtelegram-ae.so.1:_ZN3Api30onMessagesDeleteChatUserAnswerEP5QueryR10InboundPkt
libqtelegram-ae.so.1:_ZN3Api30onMessagesDeleteMessagesAnswerEP5QueryR10InboundPkt
libqtelegram-ae.so.1:_ZN3Api30onMessagesForwardMessageAnswerEP5QueryR10InboundPkt
libqtelegram-ae.so.1:_ZN3Api30onMessagesGetAllStickersAnswerEP5QueryR10InboundPkt
libqtelegram-ae.so.1:_ZN3Api31accountResetAuthorizationResultExb
libqtelegram-ae.so.1:_ZN3Api31accountUpdateDeviceLockedResultExb
libqtelegram-ae.so.1:_ZN3Api31messagesDiscardEncryptionResultExb
libqtelegram-ae.so.1:_ZN3Api31messagesGetHistoryMessagesSliceExiRK5QListI7MessageERKS0_I4ChatERKS0_I4UserE
libqtelegram-ae.so.1:_ZN3Api31messagesGetWebPagePreviewResultExRK12MessageMedia
libqtelegram-ae.so.1:_ZN3Api31messagesInstallStickerSetResultExb
libqtelegram-ae.so.1:_ZN3Api31onAccountUnregisterDeviceAnswerEP5QueryR10InboundPkt
libqtelegram-ae.so.1:_ZN3Api31onAuthExportAuthorizationAnswerEP5QueryR10InboundPkt
libqtelegram-ae.so.1:_ZN3Api31onAuthImportAuthorizationAnswerEP5QueryR10InboundPkt
libqtelegram-ae.so.1:_ZN3Api31onAuthResetAuthorizationsAnswerEP5QueryR10InboundPkt
libqtelegram-ae.so.1:_ZN3Api31onContactsResolveUsernameAnswerEP5QueryR10InboundPkt
libqtelegram-ae.so.1:_ZN3Api31onMessagesCheckChatInviteAnswerEP5QueryR10InboundPkt
libqtelegram-ae.so.1:_ZN3Api31onMessagesForwardMessagesAnswerEP5QueryR10InboundPkt
libqtelegram-ae.so.1:_ZN3Api32accountGetPasswordSettingsResultExRK23AccountPasswordSettings
libqtelegram-ae.so.1:_ZN3Api32accountResetNotifySettingsResultExb
libqtelegram-ae.so.1:_ZN3Api32messagesGetMessagesMessagesSliceExiRK5QListI7MessageERKS0_I4ChatERKS0_I4UserE
libqtelegram-ae.so.1:_ZN3Api32messagesSetEncryptedTypingResultExb
libqtelegram-ae.so.1:_ZN3Api32onAccountGetAuthorizationsAnswerEP5QueryR10InboundPkt
libqtelegram-ae.so.1:_ZN3Api32onAccountGetNotifySettingsAnswerEP5QueryR10InboundPkt
libqtelegram-ae.so.1:_ZN3Api32onMessagesAcceptEncryptionAnswerEP5QueryR10InboundPkt
libqtelegram-ae.so.1:_ZN3Api32onMessagesExportChatInviteAnswerEP5QueryR10InboundPkt
libqtelegram-ae.so.1:_ZN3Api32onMessagesImportChatInviteAnswerEP5QueryR10InboundPkt
libqtelegram-ae.so.1:_ZN3Api32onMessagesReceivedMessagesAnswerEP5QueryR10InboundPkt
libqtelegram-ae.so.1:_ZN3Api32onPhotosUpdateProfilePhotoAnswerEP5QueryR10InboundPkt
libqtelegram-ae.so.1:_ZN3Api32onPhotosUploadProfilePhotoAnswerEP5QueryR10InboundPkt
libqtelegram-ae.so.1:_ZN3Api33accountUpdateNotifySettingsResultExb
libqtelegram-ae.so.1:_ZN3Api33authRequestPasswordRecoveryResultExRK20AuthPasswordRecovery
libqtelegram-ae.so.1:_ZN3Api33messagesReadMessageContentsResultExRK24MessagesAffectedMessages
libqtelegram-ae.so.1:_ZN3Api33messagesUninstallStickerSetResultExb
libqtelegram-ae.so.1:_ZN3Api33onAccountResetAuthorizationAnswerEP5QueryR10InboundPkt
libqtelegram-ae.so.1:_ZN3Api33onAccountUpdateDeviceLockedAnswerEP5QueryR10InboundPkt
libqtelegram-ae.so.1:_ZN3Api33onMessagesDiscardEncryptionAnswerEP5QueryR10InboundPkt
libqtelegram-ae.so.1:_ZN3Api33onMessagesGetWebPagePreviewAnswerEP5QueryR10InboundPkt
libqtelegram-ae.so.1:_ZN3Api33onMessagesInstallStickerSetAnswerEP5QueryR10InboundPkt
libqtelegram-ae.so.1:_ZN3Api33onMessagesRequestEncryptionAnswerEP5QueryR10InboundPkt
libqtelegram-ae.so.1:_ZN3Api33onMessagesSendEncryptedFileAnswerEP5QueryR10InboundPkt
libqtelegram-ae.so.1:_ZN3Api34messagesReadEncryptedHistoryResultExb
libqtelegram-ae.so.1:_ZN3Api34onAccountGetPasswordSettingsAnswerEP5QueryR10InboundPkt
libqtelegram-ae.so.1:_ZN3Api34onAccountResetNotifySettingsAnswerEP5QueryR10InboundPkt
libqtelegram-ae.so.1:_ZN3Api34onMessagesSetEncryptedTypingAnswerEP5QueryR10InboundPkt
libqtelegram-ae.so.1:_ZN3Api35accountUpdatePasswordSettingsResultExb
libqtelegram-ae.so.1:_ZN3Api35onAccountUpdateNotifySettingsAnswerEP5QueryR10InboundPkt
libqtelegram-ae.so.1:_ZN3Api35onAuthRequestPasswordRecoveryAnswerEP5QueryR10InboundPkt
libqtelegram-ae.so.1:_ZN3Api35onMessagesReadMessageContentsAnswerEP5QueryR10InboundPkt
libqtelegram-ae.so.1:_ZN3Api35onMessagesUninstallStickerSetAnswerEP5QueryR10InboundPkt
libqtelegram-ae.so.1:_ZN3Api36onMessagesReadEncryptedHistoryAnswerEP5QueryR10InboundPkt
libqtelegram-ae.so.1:_ZN3Api36onMessagesSendEncryptedServiceAnswerEP5QueryR10InboundPkt
libqtelegram-ae.so.1:_ZN3Api37messagesAcceptEncryptionEncryptedChatExRK13EncryptedChat
libqtelegram-ae.so.1:_ZN3Api37onAccountUpdatePasswordSettingsAnswerEP5QueryR10InboundPkt
libqtelegram-ae.so.1:_ZN3Api38messagesRequestEncryptionEncryptedChatExRK13EncryptedChat
libqtelegram-ae.so.1:_ZN3Api38messagesSendEncryptedSentEncryptedFileExiRK13EncryptedFile
libqtelegram-ae.so.1:_ZN3Api41messagesSendEncryptedSentEncryptedMessageExi
libqtelegram-ae.so.1:_ZN3Api42messagesSendEncryptedFileSentEncryptedFileExiRK13EncryptedFile
libqtelegram-ae.so.1:_ZN3Api45messagesSendEncryptedFileSentEncryptedMessageExi
libqtelegram-ae.so.1:_ZN3Api45messagesSendEncryptedServiceSentEncryptedFileExiRK13EncryptedFile
libqtelegram-ae.so.1:_ZN3Api48messagesSendEncryptedServiceSentEncryptedMessageExi
libqtelegram-ae.so.1:_ZN3Api5errorExiRK7QStringS2_
libqtelegram-ae.so.1:_ZN3Api6configExRK6Config
libqtelegram-ae.so.1:_ZN3Api7onErrorEP5QueryiRK7QString
libqtelegram-ae.so.1:_ZN3Api8userFullExRK4UserRK12ContactsLinkRK5PhotoRK18PeerNotifySettingsbRK7QStringSE_
libqtelegram-ae.so.1:_ZN3ApiC1EP7SessionP8SettingsP11CryptoUtilsP7QObject
libqtelegram-ae.so.1:_ZN3ApiC2EP7SessionP8SettingsP11CryptoUtilsP7QObject
libqtelegram-ae.so.1:_ZN3ApiD0Ev
libqtelegram-ae.so.1:_ZN3ApiD1Ev
libqtelegram-ae.so.1:_ZN3ApiD2Ev
libqtelegram-ae.so.1:_ZN4Chat10setAddressERK7QString
libqtelegram-ae.so.1:_ZN4Chat10setVersionEi
libqtelegram-ae.so.1:_ZN4Chat12setCheckedInEb
libqtelegram-ae.so.1:_ZN4Chat12setClassTypeENS_8ChatTypeE
libqtelegram-ae.so.1:_ZN4Chat13setAccessHashEx
libqtelegram-ae.so.1:_ZN4Chat20setParticipantsCountEi
libqtelegram-ae.so.1:_ZN4Chat5fetchEP10InboundPkt
libqtelegram-ae.so.1:_ZN4Chat5setIdEi
libqtelegram-ae.so.1:_ZN4Chat6setGeoERK8GeoPoint
libqtelegram-ae.so.1:_ZN4Chat7setDateEi
libqtelegram-ae.so.1:_ZN4Chat7setLeftEb
libqtelegram-ae.so.1:_ZN4Chat8setPhotoERK9ChatPhoto
libqtelegram-ae.so.1:_ZN4Chat8setTitleERK7QString
libqtelegram-ae.so.1:_ZN4Chat8setVenueERK7QString
libqtelegram-ae.so.1:_ZN4ChatC1ENS_8ChatTypeEP10InboundPkt
libqtelegram-ae.so.1:_ZN4ChatC1EP10InboundPkt
libqtelegram-ae.so.1:_ZN4ChatC2ENS_8ChatTypeEP10InboundPkt
libqtelegram-ae.so.1:_ZN4ChatC2EP10InboundPkt
libqtelegram-ae.so.1:_ZN4ChatD0Ev
libqtelegram-ae.so.1:_ZN4ChatD1Ev
libqtelegram-ae.so.1:_ZN4ChatD2Ev
libqtelegram-ae.so.1:_ZN4ChateqERKS_
libqtelegram-ae.so.1:_ZN4File11qt_metacallEN11QMetaObject4CallEiPPv
libqtelegram-ae.so.1:_ZN4File11qt_metacastEPKc
libqtelegram-ae.so.1:_ZN4Peer12setClassTypeENS_8PeerTypeE
libqtelegram-ae.so.1:_ZN4Peer5fetchEP10InboundPkt
libqtelegram-ae.so.1:_ZN4Peer9setChatIdEi
libqtelegram-ae.so.1:_ZN4Peer9setUserIdEi
libqtelegram-ae.so.1:_ZN4PeerC1ENS_8PeerTypeEP10InboundPkt
libqtelegram-ae.so.1:_ZN4PeerC1EP10InboundPkt
libqtelegram-ae.so.1:_ZN4PeerC2ENS_8PeerTypeEP10InboundPkt
libqtelegram-ae.so.1:_ZN4PeerC2EP10InboundPkt
libqtelegram-ae.so.1:_ZN4PeerD0Ev
libqtelegram-ae.so.1:_ZN4PeerD1Ev
libqtelegram-ae.so.1:_ZN4PeerD2Ev
libqtelegram-ae.so.1:_ZN4PeereqERKS_
libqtelegram-ae.so.1:_ZN4User11setLastNameERK7QString
libqtelegram-ae.so.1:_ZN4User11setUsernameERK7QString
libqtelegram-ae.so.1:_ZN4User12setClassTypeENS_8UserTypeE
libqtelegram-ae.so.1:_ZN4User12setFirstNameERK7QString
libqtelegram-ae.so.1:_ZN4User13setAccessHashEx
libqtelegram-ae.so.1:_ZN4User5fetchEP10InboundPkt
libqtelegram-ae.so.1:_ZN4User5setIdEi
libqtelegram-ae.so.1:_ZN4User8setPhoneERK7QString
libqtelegram-ae.so.1:_ZN4User8setPhotoERK16UserProfilePhoto
libqtelegram-ae.so.1:_ZN4User9setStatusERK10UserStatus
libqtelegram-ae.so.1:_ZN4UserC1ENS_8UserTypeEP10InboundPkt
libqtelegram-ae.so.1:_ZN4UserC1EP10InboundPkt
libqtelegram-ae.so.1:_ZN4UserC2ENS_8UserTypeEP10InboundPkt
libqtelegram-ae.so.1:_ZN4UserC2EP10InboundPkt
libqtelegram-ae.so.1:_ZN4UserD0Ev
libqtelegram-ae.so.1:_ZN4UserD1Ev
libqtelegram-ae.so.1:_ZN4UserD2Ev
libqtelegram-ae.so.1:_ZN4UsereqERKS_
libqtelegram-ae.so.1:_ZN5Audio11setDurationEi
libqtelegram-ae.so.1:_ZN5Audio11setMimeTypeERK7QString
libqtelegram-ae.so.1:_ZN5Audio12setClassTypeENS_9AudioTypeE
libqtelegram-ae.so.1:_ZN5Audio13setAccessHashEx
libqtelegram-ae.so.1:_ZN5Audio5fetchEP10InboundPkt
libqtelegram-ae.so.1:_ZN5Audio5setIdEx
libqtelegram-ae.so.1:_ZN5Audio7setDateEi
libqtelegram-ae.so.1:_ZN5Audio7setDcIdEi
libqtelegram-ae.so.1:_ZN5Audio7setSizeEi
libqtelegram-ae.so.1:_ZN5Audio9setUserIdEi
libqtelegram-ae.so.1:_ZN5AudioC1ENS_9AudioTypeEP10InboundPkt
libqtelegram-ae.so.1:_ZN5AudioC1EP10InboundPkt
libqtelegram-ae.so.1:_ZN5AudioC2ENS_9AudioTypeEP10InboundPkt
libqtelegram-ae.so.1:_ZN5AudioC2EP10InboundPkt
libqtelegram-ae.so.1:_ZN5AudioD0Ev
libqtelegram-ae.so.1:_ZN5AudioD1Ev
libqtelegram-ae.so.1:_ZN5AudioD2Ev
libqtelegram-ae.so.1:_ZN5AudioeqERKS_
libqtelegram-ae.so.1:_ZN5Photo12setClassTypeENS_9PhotoTypeE
libqtelegram-ae.so.1:_ZN5Photo13setAccessHashEx
libqtelegram-ae.so.1:_ZN5Photo5fetchEP10InboundPkt
libqtelegram-ae.so.1:_ZN5Photo5setIdEx
libqtelegram-ae.so.1:_ZN5Photo6setGeoERK8GeoPoint
libqtelegram-ae.so.1:_ZN5Photo7setDateEi
libqtelegram-ae.so.1:_ZN5Photo8setSizesERK5QListI9PhotoSizeE
libqtelegram-ae.so.1:_ZN5Photo9setUserIdEi
libqtelegram-ae.so.1:_ZN5PhotoC1ENS_9PhotoTypeEP10InboundPkt
libqtelegram-ae.so.1:_ZN5PhotoC1EP10InboundPkt
libqtelegram-ae.so.1:_ZN5PhotoC2ENS_9PhotoTypeEP10InboundPkt
libqtelegram-ae.so.1:_ZN5PhotoC2EP10InboundPkt
libqtelegram-ae.so.1:_ZN5PhotoD0Ev
libqtelegram-ae.so.1:_ZN5PhotoD1Ev
libqtelegram-ae.so.1:_ZN5PhotoD2Ev
libqtelegram-ae.so.1:_ZN5PhotoeqERKS_
libqtelegram-ae.so.1:_ZN5Query10timerEventEP11QTimerEvent
libqtelegram-ae.so.1:_ZN5Query11qt_metacallEN11QMetaObject4CallEiPPv
libqtelegram-ae.so.1:_ZN5Query11qt_metacastEPKc
libqtelegram-ae.so.1:_ZN5Query15decreaseResendsEv
libqtelegram-ae.so.1:_ZN5Query4dataEv
libqtelegram-ae.so.1:_ZN5Query7setDataEPvi
libqtelegram-ae.so.1:_ZN5Query7timeoutEPS_
libqtelegram-ae.so.1:_ZN5QueryC1EP7QObject
libqtelegram-ae.so.1:_ZN5QueryC2EP7QObject
libqtelegram-ae.so.1:_ZN5QueryD0Ev
libqtelegram-ae.so.1:_ZN5QueryD1Ev
libqtelegram-ae.so.1:_ZN5QueryD2Ev
libqtelegram-ae.so.1:_ZN5Utils10check_g_bnEP9bignum_stS1_
libqtelegram-ae.so.1:_ZN5Utils10freeSecureEPvi
libqtelegram-ae.so.1:_ZN5Utils11findDividerEx
libqtelegram-ae.so.1:_ZN5Utils11qt_metacallEN11QMetaObject4CallEiPPv
libqtelegram-ae.so.1:_ZN5Utils11qt_metacastEPKc
libqtelegram-ae.so.1:_ZN5Utils11randomBytesEPvi
libqtelegram-ae.so.1:_ZN5Utils12pToBigEndianEj
libqtelegram-ae.so.1:_ZN5Utils13bignumToBytesEP9bignum_st
libqtelegram-ae.so.1:_ZN5Utils13bytesToBignumERK10QByteArray
libqtelegram-ae.so.1:_ZN5Utils13getAppVersionEv
libqtelegram-ae.so.1:_ZN5Utils14getDeviceModelEv
libqtelegram-ae.so.1:_ZN5Utils15serializeBignumEP9bignum_stPci
libqtelegram-ae.so.1:_ZN5Utils16getSystemVersionEv
libqtelegram-ae.so.1:_ZN5Utils16rsaLoadPublicKeyERK7QString
libqtelegram-ae.so.1:_ZN5Utils16secureZeroMemoryEPvim
libqtelegram-ae.so.1:_ZN5Utils17getKeyFingerprintEPh
libqtelegram-ae.so.1:_ZN5Utils20padBytesAndGetBignumERK10QByteArray
libqtelegram-ae.so.1:_ZN5Utils21computeRSAFingerprintEP6rsa_st
libqtelegram-ae.so.1:_ZN5Utils22parsePhoneNumberDigitsERK7QString
libqtelegram-ae.so.1:_ZN5Utils3gcdEyy
libqtelegram-ae.so.1:_ZN5Utils5toHexEPvi
libqtelegram-ae.so.1:_ZN5Utils5toHexEi
libqtelegram-ae.so.1:_ZN5Utils6ensureEi
libqtelegram-ae.so.1:_ZN5Utils6tallocEm
libqtelegram-ae.so.1:_ZN5Utils7check_gEPhP9bignum_st
libqtelegram-ae.so.1:_ZN5Utils8getUTimeEi
libqtelegram-ae.so.1:_ZN5Utils8tinflateEPviS0_i
libqtelegram-ae.so.1:_ZN5Utils9ensurePtrEPv
libqtelegram-ae.so.1:_ZN5UtilsC1EP7QObject
libqtelegram-ae.so.1:_ZN5UtilsC2EP7QObject
libqtelegram-ae.so.1:_ZN5Video11setDurationEi
libqtelegram-ae.so.1:_ZN5Video12setClassTypeENS_9VideoTypeE
libqtelegram-ae.so.1:_ZN5Video13setAccessHashEx
libqtelegram-ae.so.1:_ZN5Video4setHEi
libqtelegram-ae.so.1:_ZN5Video4setWEi
libqtelegram-ae.so.1:_ZN5Video5fetchEP10InboundPkt
libqtelegram-ae.so.1:_ZN5Video5setIdEx
libqtelegram-ae.so.1:_ZN5Video7setDateEi
libqtelegram-ae.so.1:_ZN5Video7setDcIdEi
libqtelegram-ae.so.1:_ZN5Video7setSizeEi
libqtelegram-ae.so.1:_ZN5Video8setThumbERK9PhotoSize
libqtelegram-ae.so.1:_ZN5Video9setUserIdEi
libqtelegram-ae.so.1:_ZN5VideoC1ENS_9VideoTypeEP10InboundPkt
libqtelegram-ae.so.1:_ZN5VideoC1EP10InboundPkt
libqtelegram-ae.so.1:_ZN5VideoC2ENS_9VideoTypeEP10InboundPkt
libqtelegram-ae.so.1:_ZN5VideoC2EP10InboundPkt
libqtelegram-ae.so.1:_ZN5VideoD0Ev
libqtelegram-ae.so.1:_ZN5VideoD1Ev
libqtelegram-ae.so.1:_ZN5VideoD2Ev
libqtelegram-ae.so.1:_ZN5VideoeqERKS_
libqtelegram-ae.so.1:_ZN6Config10setExpiresEi
libqtelegram-ae.so.1:_ZN6Config11setTestModeEb
libqtelegram-ae.so.1:_ZN6Config12setClassTypeENS_10ConfigTypeE
libqtelegram-ae.so.1:_ZN6Config12setDcOptionsERK5QListI8DcOptionE
libqtelegram-ae.so.1:_ZN6Config14setChatBigSizeEi
libqtelegram-ae.so.1:_ZN6Config14setChatSizeMaxEi
libqtelegram-ae.so.1:_ZN6Config16setPushChatLimitEi
libqtelegram-ae.so.1:_ZN6Config19setBroadcastSizeMaxEi
libqtelegram-ae.so.1:_ZN6Config19setDisabledFeaturesERK5QListI15DisabledFeatureE
libqtelegram-ae.so.1:_ZN6Config19setPushChatPeriodMsEi
libqtelegram-ae.so.1:_ZN6Config20setForwardedCountMaxEi
libqtelegram-ae.so.1:_ZN6Config21setNotifyCloudDelayMsEi
libqtelegram-ae.so.1:_ZN6Config23setNotifyDefaultDelayMsEi
libqtelegram-ae.so.1:_ZN6Config23setOfflineBlurTimeoutMsEi
libqtelegram-ae.so.1:_ZN6Config23setOfflineIdleTimeoutMsEi
libqtelegram-ae.so.1:_ZN6Config23setOnlineCloudTimeoutMsEi
libqtelegram-ae.so.1:_ZN6Config23setOnlineUpdatePeriodMsEi
libqtelegram-ae.so.1:_ZN6Config5fetchEP10InboundPkt
libqtelegram-ae.so.1:_ZN6Config7setDateEi
libqtelegram-ae.so.1:_ZN6Config9setThisDcEi
libqtelegram-ae.so.1:_ZN6ConfigC1ENS_10ConfigTypeEP10InboundPkt
libqtelegram-ae.so.1:_ZN6ConfigC1EP10InboundPkt
libqtelegram-ae.so.1:_ZN6ConfigC2ENS_10ConfigTypeEP10InboundPkt
libqtelegram-ae.so.1:_ZN6ConfigC2EP10InboundPkt
libqtelegram-ae.so.1:_ZN6ConfigD0Ev
libqtelegram-ae.so.1:_ZN6ConfigD1Ev
libqtelegram-ae.so.1:_ZN6ConfigD2Ev
libqtelegram-ae.so.1:_ZN6ConfigeqERKS_
libqtelegram-ae.so.1:_ZN6DCAuth11qt_metacallEN11QMetaObject4CallEiPPv
libqtelegram-ae.so.1:_ZN6DCAuth11qt_metacastEPKc
libqtelegram-ae.so.1:_ZN6DCAuth13createAuthKeyEv
libqtelegram-ae.so.1:_ZN6DCAuth13rpcSendPacketER11OutboundPkt
libqtelegram-ae.so.1:_ZN6DCAuth15processDHAnswerER10InboundPkt
libqtelegram-ae.so.1:_ZN6DCAuth15sendReqPQPacketEv
libqtelegram-ae.so.1:_ZN6DCAuth16processConnectedEv
libqtelegram-ae.so.1:_ZN6DCAuth16processRpcAnswerE10QByteArray
libqtelegram-ae.so.1:_ZN6DCAuth18processResPQAnswerERK10InboundPkt
libqtelegram-ae.so.1:_ZN6DCAuth19processAuthCompleteER10InboundPkt
libqtelegram-ae.so.1:_ZN6DCAuth2dcEv
libqtelegram-ae.so.1:_ZN6DCAuth7dcReadyEP2DC
libqtelegram-ae.so.1:_ZN6DCAuthC1EP2DCP8SettingsP11CryptoUtilsP7QObject
libqtelegram-ae.so.1:_ZN6DCAuthC2EP2DCP8SettingsP11CryptoUtilsP7QObject
libqtelegram-ae.so.1:_ZN6DCAuthD0Ev
libqtelegram-ae.so.1:_ZN6DCAuthD1Ev
libqtelegram-ae.so.1:_ZN6DCAuthD2Ev
libqtelegram-ae.so.1:_ZN6Dialog12setClassTypeENS_10DialogTypeE
libqtelegram-ae.so.1:_ZN6Dialog13setTopMessageEi
libqtelegram-ae.so.1:_ZN6Dialog14setUnreadCountEi
libqtelegram-ae.so.1:_ZN6Dialog17setNotifySettingsERK18PeerNotifySettings
libqtelegram-ae.so.1:_ZN6Dialog17setReadInboxMaxIdEi
libqtelegram-ae.so.1:_ZN6Dialog5fetchEP10InboundPkt
libqtelegram-ae.so.1:_ZN6Dialog7setPeerERK4Peer
libqtelegram-ae.so.1:_ZN6DialogC1ENS_10DialogTypeEP10InboundPkt
libqtelegram-ae.so.1:_ZN6DialogC1EP10InboundPkt
libqtelegram-ae.so.1:_ZN6DialogC2ENS_10DialogTypeEP10InboundPkt
libqtelegram-ae.so.1:_ZN6DialogC2EP10InboundPkt
libqtelegram-ae.so.1:_ZN6DialogD0Ev
libqtelegram-ae.so.1:_ZN6DialogD1Ev
libqtelegram-ae.so.1:_ZN6DialogD2Ev
libqtelegram-ae.so.1:_ZN6DialogeqERKS_
libqtelegram-ae.so.1:_ZN6Update10setBlockedEb
libqtelegram-ae.so.1:_ZN6Update10setMaxDateEi
libqtelegram-ae.so.1:_ZN6Update10setMessageERK7Message
libqtelegram-ae.so.1:_ZN6Update10setVersionEi
libqtelegram-ae.so.1:_ZN6Update10setWebpageERK7WebPage
libqtelegram-ae.so.1:_ZN6Update11setLastNameERK7QString
libqtelegram-ae.so.1:_ZN6Update11setLocationERK7QString
libqtelegram-ae.so.1:_ZN6Update11setMessagesERK5QListIiE
libqtelegram-ae.so.1:_ZN6Update11setPreviousEb
libqtelegram-ae.so.1:_ZN6Update11setPtsCountEi
libqtelegram-ae.so.1:_ZN6Update11setRandomIdEx
libqtelegram-ae.so.1:_ZN6Update11setUsernameERK7QString
libqtelegram-ae.so.1:_ZN6Update12setAuthKeyIdEx
libqtelegram-ae.so.1:_ZN6Update12setClassTypeENS_10UpdateTypeE
libqtelegram-ae.so.1:_ZN6Update12setDcOptionsERK5QListI8DcOptionE
libqtelegram-ae.so.1:_ZN6Update12setFirstNameERK7QString
libqtelegram-ae.so.1:_ZN6Update12setInviterIdEi
libqtelegram-ae.so.1:_ZN6Update13setPeerNotifyERK10NotifyPeer
libqtelegram-ae.so.1:_ZN6Update14setForeignLinkERK11ContactLink
libqtelegram-ae.so.1:_ZN6Update15setParticipantsERK16ChatParticipants
libqtelegram-ae.so.1:_ZN6Update16setMessageStringERK7QString
libqtelegram-ae.so.1:_ZN6Update17setMessageGeoChatERK14GeoChatMessage
libqtelegram-ae.so.1:_ZN6Update17setNotifySettingsERK18PeerNotifySettings
libqtelegram-ae.so.1:_ZN6Update19setMessageEncryptedERK16EncryptedMessage
libqtelegram-ae.so.1:_ZN6Update5fetchEP10InboundPkt
libqtelegram-ae.so.1:_ZN6Update5setIdEi
libqtelegram-ae.so.1:_ZN6Update6setKeyERK10PrivacyKey
libqtelegram-ae.so.1:_ZN6Update6setPtsEi
libqtelegram-ae.so.1:_ZN6Update6setQtsEi
libqtelegram-ae.so.1:_ZN6Update7setChatERK13EncryptedChat
libqtelegram-ae.so.1:_ZN6Update7setDateEi
libqtelegram-ae.so.1:_ZN6Update7setPeerERK4Peer
libqtelegram-ae.so.1:_ZN6Update7setTypeERK7QString
libqtelegram-ae.so.1:_ZN6Update8setMaxIdEi
libqtelegram-ae.so.1:_ZN6Update8setMediaERK12MessageMedia
libqtelegram-ae.so.1:_ZN6Update8setPhoneERK7QString
libqtelegram-ae.so.1:_ZN6Update8setPhotoERK16UserProfilePhoto
libqtelegram-ae.so.1:_ZN6Update8setPopupEb
libqtelegram-ae.so.1:_ZN6Update8setRulesERK5QListI11PrivacyRuleE
libqtelegram-ae.so.1:_ZN6Update9setActionERK17SendMessageAction
libqtelegram-ae.so.1:_ZN6Update9setChatIdEi
libqtelegram-ae.so.1:_ZN6Update9setDeviceERK7QString
libqtelegram-ae.so.1:_ZN6Update9setMyLinkERK11ContactLink
libqtelegram-ae.so.1:_ZN6Update9setStatusERK10UserStatus
libqtelegram-ae.so.1:_ZN6Update9setUserIdEi
libqtelegram-ae.so.1:_ZN6UpdateC1ENS_10UpdateTypeEP10InboundPkt
libqtelegram-ae.so.1:_ZN6UpdateC1EP10InboundPkt
libqtelegram-ae.so.1:_ZN6UpdateC2ENS_10UpdateTypeEP10InboundPkt
libqtelegram-ae.so.1:_ZN6UpdateC2EP10InboundPkt
libqtelegram-ae.so.1:_ZN6UpdateD0Ev
libqtelegram-ae.so.1:_ZN6UpdateD1Ev
libqtelegram-ae.so.1:_ZN6UpdateD2Ev
libqtelegram-ae.so.1:_ZN6UpdateeqERKS_
libqtelegram-ae.so.1:_ZN7Contact12setClassTypeENS_11ContactTypeE
libqtelegram-ae.so.1:_ZN7Contact5fetchEP10InboundPkt
libqtelegram-ae.so.1:_ZN7Contact9setMutualEb
libqtelegram-ae.so.1:_ZN7Contact9setUserIdEi
libqtelegram-ae.so.1:_ZN7ContactC1ENS_11ContactTypeEP10InboundPkt
libqtelegram-ae.so.1:_ZN7ContactC1EP10InboundPkt
libqtelegram-ae.so.1:_ZN7ContactC2ENS_11ContactTypeEP10InboundPkt
libqtelegram-ae.so.1:_ZN7ContactC2EP10InboundPkt
libqtelegram-ae.so.1:_ZN7ContactD0Ev
libqtelegram-ae.so.1:_ZN7ContactD1Ev
libqtelegram-ae.so.1:_ZN7ContactD2Ev
libqtelegram-ae.so.1:_ZN7ContacteqERKS_
libqtelegram-ae.so.1:_ZN7Message10setFwdDateEi
libqtelegram-ae.so.1:_ZN7Message10setMessageERK7QString
libqtelegram-ae.so.1:_ZN7Message12setClassTypeENS_11MessageTypeE
libqtelegram-ae.so.1:_ZN7Message12setFwdFromIdEi
libqtelegram-ae.so.1:_ZN7Message15setReplyToMsgIdEi
libqtelegram-ae.so.1:_ZN7Message5fetchEP10InboundPkt
libqtelegram-ae.so.1:_ZN7Message5setIdEi
libqtelegram-ae.so.1:_ZN7Message7setDateEi
libqtelegram-ae.so.1:_ZN7Message7setToIdERK4Peer
libqtelegram-ae.so.1:_ZN7Message8setFlagsEi
libqtelegram-ae.so.1:_ZN7Message8setMediaERK12MessageMedia
libqtelegram-ae.so.1:_ZN7Message9setActionERK13MessageAction
libqtelegram-ae.so.1:_ZN7Message9setFromIdEi
libqtelegram-ae.so.1:_ZN7MessageC1ENS_11MessageTypeEP10InboundPkt
libqtelegram-ae.so.1:_ZN7MessageC1EP10InboundPkt
libqtelegram-ae.so.1:_ZN7MessageC2ENS_11MessageTypeEP10InboundPkt
libqtelegram-ae.so.1:_ZN7MessageC2EP10InboundPkt
libqtelegram-ae.so.1:_ZN7MessageD0Ev
libqtelegram-ae.so.1:_ZN7MessageD1Ev
libqtelegram-ae.so.1:_ZN7MessageD2Ev
libqtelegram-ae.so.1:_ZN7MessageeqERKS_
libqtelegram-ae.so.1:_ZN7Session10workPackedER10InboundPktx
libqtelegram-ae.so.1:_ZN7Session11qt_metacallEN11QMetaObject4CallEiPPv
libqtelegram-ae.so.1:_ZN7Session11qt_metacastEPKc
libqtelegram-ae.so.1:_ZN7Session11resendQueryEP5Query
libqtelegram-ae.so.1:_ZN7Session11updateShortERK6Updatei
libqtelegram-ae.so.1:_ZN7Session11workMsgsAckER10InboundPktx
libqtelegram-ae.so.1:_ZN7Session11workUpdatesER10InboundPktx
libqtelegram-ae.so.1:_ZN7Session12queryOnErrorER10InboundPktx
libqtelegram-ae.so.1:_ZN7Session12sessionReadyEP2DC
libqtelegram-ae.so.1:_ZN7Session13errorReceivedEP5Queryi7QString
libqtelegram-ae.so.1:_ZN7Session13queryOnResultER10InboundPktx
libqtelegram-ae.so.1:_ZN7Session13sessionClosedEx
libqtelegram-ae.so.1:_ZN7Session13workContainerER10InboundPktx
libqtelegram-ae.so.1:_ZN7Session13workRpcResultER10InboundPktx
libqtelegram-ae.so.1:_ZN7Session14onDisconnectedEv
libqtelegram-ae.so.1:_ZN7Session14resultReceivedEP5QueryR10InboundPkt
libqtelegram-ae.so.1:_ZN7Session14rpcSendMessageEPvi
libqtelegram-ae.so.1:_ZN7Session14updatesTooLongEv
libqtelegram-ae.so.1:_ZN7Session15sessionReleasedEx
libqtelegram-ae.so.1:_ZN7Session15updateMessageIdExx
libqtelegram-ae.so.1:_ZN7Session15updatesCombinedERK5QListI6UpdateERKS0_I4UserERKS0_I4ChatEiii
libqtelegram-ae.so.1:_ZN7Session15workUpdateShortER10InboundPktx
libqtelegram-ae.so.1:_ZN7Session16addToPendingAcksEx
libqtelegram-ae.so.1:_ZN7Session16processConnectedEv
libqtelegram-ae.so.1:_ZN7Session16processRpcAnswerE10QByteArray
libqtelegram-ae.so.1:_ZN7Session16rpcExecuteAnswerER10InboundPktx
libqtelegram-ae.so.1:_ZN7Session16workDetailedInfoER10InboundPktx
libqtelegram-ae.so.1:_ZN7Session17aesEncryptMessageEPNS_12EncryptedMsgE
libqtelegram-ae.so.1:_ZN7Session17generateNextMsgIdEv
libqtelegram-ae.so.1:_ZN7Session17processRpcMessageER10InboundPkt
libqtelegram-ae.so.1:_ZN7Session17workBadServerSaltER10InboundPktx
libqtelegram-ae.so.1:_ZN7Session18encryptSendMessageEPiii
libqtelegram-ae.so.1:_ZN7Session18updateShortMessageEiiRK7QStringiiiiiibb
libqtelegram-ae.so.1:_ZN7Session18workUpdatesTooLongER10InboundPktx
libqtelegram-ae.so.1:_ZN7Session19workNewDetailedInfoER10InboundPktx
libqtelegram-ae.so.1:_ZN7Session19workUpdatesCombinedER10InboundPktx
libqtelegram-ae.so.1:_ZN7Session20initEncryptedMessageEi
libqtelegram-ae.so.1:_ZN7Session21recomposeAndSendQueryEP5Query
libqtelegram-ae.so.1:_ZN7Session21workNewSessionCreatedER10InboundPktx
libqtelegram-ae.so.1:_ZN7Session22generatePlainNextMsgIdEv
libqtelegram-ae.so.1:_ZN7Session22updateShortChatMessageEiiiRK7QStringiiiiiibb
libqtelegram-ae.so.1:_ZN7Session22workBadMsgNotificationER10InboundPktx
libqtelegram-ae.so.1:_ZN7Session22workUpdateShortMessageER10InboundPktx
libqtelegram-ae.so.1:_ZN7Session26workUpdateShortChatMessageER10InboundPktx
libqtelegram-ae.so.1:_ZN7Session2dcEv
libqtelegram-ae.so.1:_ZN7Session3ackEx
libqtelegram-ae.so.1:_ZN7Session5closeEv
libqtelegram-ae.so.1:_ZN7Session6ackAllEv
libqtelegram-ae.so.1:_ZN7Session7releaseEv
libqtelegram-ae.so.1:_ZN7Session7updatesERK5QListI6UpdateERKS0_I4UserERKS0_I4ChatEii
libqtelegram-ae.so.1:_ZN7Session8sendAcksERK5QListIxE
libqtelegram-ae.so.1:_ZN7Session8workPongER10InboundPktx
libqtelegram-ae.so.1:_ZN7Session9sendQueryER11OutboundPktP12QueryMethodsRK8QVariantRK7QString
libqtelegram-ae.so.1:_ZN7SessionC1EP2DCP8SettingsP11CryptoUtilsP7QObject
libqtelegram-ae.so.1:_ZN7SessionC2EP2DCP8SettingsP11CryptoUtilsP7QObject
libqtelegram-ae.so.1:_ZN7SessionD0Ev
libqtelegram-ae.so.1:_ZN7SessionD1Ev
libqtelegram-ae.so.1:_ZN7SessionD2Ev
libqtelegram-ae.so.1:_ZN7WebPage11setDurationEi
libqtelegram-ae.so.1:_ZN7WebPage11setEmbedUrlERK7QString
libqtelegram-ae.so.1:_ZN7WebPage11setSiteNameERK7QString
libqtelegram-ae.so.1:_ZN7WebPage12setClassTypeENS_11WebPageTypeE
libqtelegram-ae.so.1:_ZN7WebPage12setEmbedTypeERK7QString
libqtelegram-ae.so.1:_ZN7WebPage13setDisplayUrlERK7QString
libqtelegram-ae.so.1:_ZN7WebPage13setEmbedWidthEi
libqtelegram-ae.so.1:_ZN7WebPage14setDescriptionERK7QString
libqtelegram-ae.so.1:_ZN7WebPage14setEmbedHeightEi
libqtelegram-ae.so.1:_ZN7WebPage5fetchEP10InboundPkt
libqtelegram-ae.so.1:_ZN7WebPage5setIdEx
libqtelegram-ae.so.1:_ZN7WebPage6setUrlERK7QString
libqtelegram-ae.so.1:_ZN7WebPage7setDateEi
libqtelegram-ae.so.1:_ZN7WebPage7setTypeERK7QString
libqtelegram-ae.so.1:_ZN7WebPage8setFlagsEi
libqtelegram-ae.so.1:_ZN7WebPage8setPhotoERK5Photo
libqtelegram-ae.so.1:_ZN7WebPage8setTitleERK7QString
libqtelegram-ae.so.1:_ZN7WebPage9setAuthorERK7QString
libqtelegram-ae.so.1:_ZN7WebPageC1ENS_11WebPageTypeEP10InboundPkt
libqtelegram-ae.so.1:_ZN7WebPageC1EP10InboundPkt
libqtelegram-ae.so.1:_ZN7WebPageC2ENS_11WebPageTypeEP10InboundPkt
libqtelegram-ae.so.1:_ZN7WebPageC2EP10InboundPkt
libqtelegram-ae.so.1:_ZN7WebPageD0Ev
libqtelegram-ae.so.1:_ZN7WebPageD1Ev
libqtelegram-ae.so.1:_ZN7WebPageD2Ev
libqtelegram-ae.so.1:_ZN7WebPageeqERKS_
libqtelegram-ae.so.1:_ZN8Asserter10fatalErrorEv
libqtelegram-ae.so.1:_ZN8Asserter11qt_metacallEN11QMetaObject4CallEiPPv
libqtelegram-ae.so.1:_ZN8Asserter11qt_metacastEPKc
libqtelegram-ae.so.1:_ZN8Asserter5checkEb
libqtelegram-ae.so.1:_ZN8AsserterC1EP7QObject
libqtelegram-ae.so.1:_ZN8AsserterC2EP7QObject
libqtelegram-ae.so.1:_ZN8ChatFull12setChatPhotoERK5Photo
libqtelegram-ae.so.1:_ZN8ChatFull12setClassTypeENS_12ChatFullTypeE
libqtelegram-ae.so.1:_ZN8ChatFull15setParticipantsERK16ChatParticipants
libqtelegram-ae.so.1:_ZN8ChatFull17setExportedInviteERK18ExportedChatInvite
libqtelegram-ae.so.1:_ZN8ChatFull17setNotifySettingsERK18PeerNotifySettings
libqtelegram-ae.so.1:_ZN8ChatFull5fetchEP10InboundPkt
libqtelegram-ae.so.1:_ZN8ChatFull5setIdEi
libqtelegram-ae.so.1:_ZN8ChatFullC1ENS_12ChatFullTypeEP10InboundPkt
libqtelegram-ae.so.1:_ZN8ChatFullC1EP10InboundPkt
libqtelegram-ae.so.1:_ZN8ChatFullC2ENS_12ChatFullTypeEP10InboundPkt
libqtelegram-ae.so.1:_ZN8ChatFullC2EP10InboundPkt
libqtelegram-ae.so.1:_ZN8ChatFullD0Ev
libqtelegram-ae.so.1:_ZN8ChatFullD1Ev
libqtelegram-ae.so.1:_ZN8ChatFullD2Ev
libqtelegram-ae.so.1:_ZN8ChatFulleqERKS_
libqtelegram-ae.so.1:_ZN8DcOption11setHostnameERK7QString
libqtelegram-ae.so.1:_ZN8DcOption12setClassTypeENS_12DcOptionTypeE
libqtelegram-ae.so.1:_ZN8DcOption12setIpAddressERK7QString
libqtelegram-ae.so.1:_ZN8DcOption5fetchEP10InboundPkt
libqtelegram-ae.so.1:_ZN8DcOption5setIdEi
libqtelegram-ae.so.1:_ZN8DcOption7setPortEi
libqtelegram-ae.so.1:_ZN8DcOptionC1ENS_12DcOptionTypeEP10InboundPkt
libqtelegram-ae.so.1:_ZN8DcOptionC1EP10InboundPkt
libqtelegram-ae.so.1:_ZN8DcOptionC2ENS_12DcOptionTypeEP10InboundPkt
libqtelegram-ae.so.1:_ZN8DcOptionC2EP10InboundPkt
libqtelegram-ae.so.1:_ZN8DcOptionD0Ev
libqtelegram-ae.so.1:_ZN8DcOptionD1Ev
libqtelegram-ae.so.1:_ZN8DcOptionD2Ev
libqtelegram-ae.so.1:_ZN8DcOptioneqERKS_
libqtelegram-ae.so.1:_ZN8Document11setMimeTypeERK7QString
libqtelegram-ae.so.1:_ZN8Document12setClassTypeENS_12DocumentTypeE
libqtelegram-ae.so.1:_ZN8Document13setAccessHashEx
libqtelegram-ae.so.1:_ZN8Document13setAttributesERK5QListI17DocumentAttributeE
libqtelegram-ae.so.1:_ZN8Document5fetchEP10InboundPkt
libqtelegram-ae.so.1:_ZN8Document5setIdEx
libqtelegram-ae.so.1:_ZN8Document7setDateEi
libqtelegram-ae.so.1:_ZN8Document7setDcIdEi
libqtelegram-ae.so.1:_ZN8Document7setSizeEi
libqtelegram-ae.so.1:_ZN8Document8setThumbERK9PhotoSize
libqtelegram-ae.so.1:_ZN8DocumentC1ENS_12DocumentTypeEP10InboundPkt
libqtelegram-ae.so.1:_ZN8DocumentC1EP10InboundPkt
libqtelegram-ae.so.1:_ZN8DocumentC2ENS_12DocumentTypeEP10InboundPkt
libqtelegram-ae.so.1:_ZN8DocumentC2EP10InboundPkt
libqtelegram-ae.so.1:_ZN8DocumentD0Ev
libqtelegram-ae.so.1:_ZN8DocumentD1Ev
libqtelegram-ae.so.1:_ZN8DocumentD2Ev
libqtelegram-ae.so.1:_ZN8DocumenteqERKS_
libqtelegram-ae.so.1:_ZN8GeoPoint12setClassTypeENS_12GeoPointTypeE
libqtelegram-ae.so.1:_ZN8GeoPoint12setLongValueEd
libqtelegram-ae.so.1:_ZN8GeoPoint5fetchEP10InboundPkt
libqtelegram-ae.so.1:_ZN8GeoPoint6setLatEd
libqtelegram-ae.so.1:_ZN8GeoPointC1ENS_12GeoPointTypeEP10InboundPkt
libqtelegram-ae.so.1:_ZN8GeoPointC1EP10InboundPkt
libqtelegram-ae.so.1:_ZN8GeoPointC2ENS_12GeoPointTypeEP10InboundPkt
libqtelegram-ae.so.1:_ZN8GeoPointC2EP10InboundPkt
libqtelegram-ae.so.1:_ZN8GeoPointD0Ev
libqtelegram-ae.so.1:_ZN8GeoPointD1Ev
libqtelegram-ae.so.1:_ZN8GeoPointD2Ev
libqtelegram-ae.so.1:_ZN8GeoPointeqERKS_
libqtelegram-ae.so.1:_ZN8Settings10setAppHashERK7QString
libqtelegram-ae.so.1:_ZN8Settings11qt_metacallEN11QMetaObject4CallEiPPv
libqtelegram-ae.so.1:_ZN8Settings11qt_metacastEPKc
libqtelegram-ae.so.1:_ZN8Settings12loadSettingsERK7QStringS2_S2_
libqtelegram-ae.so.1:_ZN8Settings12readAuthFileEv
libqtelegram-ae.so.1:_ZN8Settings13writeAuthFileEv
libqtelegram-ae.so.1:_ZN8Settings14readSecretFileEv
libqtelegram-ae.so.1:_ZN8Settings14removeAuthFileEv
libqtelegram-ae.so.1:_ZN8Settings15defaultHostDcIdEv
libqtelegram-ae.so.1:_ZN8Settings15defaultHostPortEv
libqtelegram-ae.so.1:_ZN8Settings15writeSecretFileEv
libqtelegram-ae.so.1:_ZN8Settings18defaultHostAddressEv
libqtelegram-ae.so.1:_ZN8Settings18setDefaultHostDcIdEs
libqtelegram-ae.so.1:_ZN8Settings18setDefaultHostPortEs
libqtelegram-ae.so.1:_ZN8Settings20setAuthConfigMethodsEPFbRK7QStringS2_R4QMapIS0_8QVariantEEPFbS2_S2_RKS5_E
libqtelegram-ae.so.1:_ZN8Settings21setDefaultHostAddressERK7QString
libqtelegram-ae.so.1:_ZN8Settings5appIdEv
libqtelegram-ae.so.1:_ZN8Settings7appHashEv
libqtelegram-ae.so.1:_ZN8Settings8setAppIdEi
libqtelegram-ae.so.1:_ZN8Settings9clearAuthERK7QStringS2_
libqtelegram-ae.so.1:_ZN8SettingsC1Ev
libqtelegram-ae.so.1:_ZN8SettingsC2Ev
libqtelegram-ae.so.1:_ZN8SettingsD0Ev
libqtelegram-ae.so.1:_ZN8SettingsD1Ev
libqtelegram-ae.so.1:_ZN8SettingsD2Ev
libqtelegram-ae.so.1:_ZN8Telegram10authLogOutEv
libqtelegram-ae.so.1:_ZN8Telegram10authNeededEv
libqtelegram-ae.so.1:_ZN8Telegram10authSignInERK7QString
libqtelegram-ae.so.1:_ZN8Telegram10authSignUpERK7QStringS2_S2_
libqtelegram-ae.so.1:_ZN8Telegram10fatalErrorEv
libqtelegram-ae.so.1:_ZN8Telegram10isLoggedInEv
libqtelegram-ae.so.1:_ZN8Telegram11authSendSmsEv
libqtelegram-ae.so.1:_ZN8Telegram11isConnectedEv
libqtelegram-ae.so.1:_ZN8Telegram11qt_metacallEN11QMetaObject4CallEiPPv
libqtelegram-ae.so.1:_ZN8Telegram11qt_metacastEPKc
libqtelegram-ae.so.1:_ZN8Telegram11updateShortERK6Updatei
libqtelegram-ae.so.1:_ZN8Telegram12authLoggedInEv
libqtelegram-ae.so.1:_ZN8Telegram12authSendCallEv
libqtelegram-ae.so.1:_ZN8Telegram12authSendCodeEv
libqtelegram-ae.so.1:_ZN8Telegram12disconnectedEv
libqtelegram-ae.so.1:_ZN8Telegram12onErrorRetryExiRK7QString
libqtelegram-ae.so.1:_ZN8Telegram13contactsBlockERK9InputUser
libqtelegram-ae.so.1:_ZN8Telegram13contactsFoundExRK5QListI12ContactFoundERKS0_I4UserE
libqtelegram-ae.so.1:_ZN8Telegram13generateGAorBEP10SecretChat
libqtelegram-ae.so.1:_ZN8Telegram13onUpdateShortERK6Update
libqtelegram-ae.so.1:_ZN8Telegram13uploadGetFileERK17InputFileLocationiiRK10QByteArrayS5_
libqtelegram-ae.so.1:_ZN8Telegram13usersGetUsersERK5QListI9InputUserE
libqtelegram-ae.so.1:_ZN8Telegram14authCheckPhoneERK7QString
libqtelegram-ae.so.1:_ZN8Telegram14authCheckPhoneEv
libqtelegram-ae.so.1:_ZN8Telegram14contactsSearchERK7QStringi
libqtelegram-ae.so.1:_ZN8Telegram14messagesSearchERK9InputPeerRK7QStringRK14MessagesFilteriiiii
libqtelegram-ae.so.1:_ZN8Telegram14onAuthLoggedInEv
libqtelegram-ae.so.1:_ZN8Telegram14onAuthSentCodeExbRK7QStringib
libqtelegram-ae.so.1:_ZN8Telegram14onPhotosPhotosExRK5QListI5PhotoERKS0_I4UserE
libqtelegram-ae.so.1:_ZN8Telegram14setPhoneNumberERK7QString
libqtelegram-ae.so.1:_ZN8Telegram14updatesTooLongEv
libqtelegram-ae.so.1:_ZN8Telegram14uploadSendFileER13FileOperationiRK7QStringRK10QByteArrayS7_S4_
libqtelegram-ae.so.1:_ZN8Telegram14uploadSendFileER13FileOperationiRK7QStringS4_
libqtelegram-ae.so.1:_ZN8Telegram15authSendInvitesERK11QStringListRK7QString
libqtelegram-ae.so.1:_ZN8Telegram15authSignInErrorExiRK7QString
libqtelegram-ae.so.1:_ZN8Telegram15authSignUpErrorExiRK7QString
libqtelegram-ae.so.1:_ZN8Telegram15contactsUnblockERK9InputUser
libqtelegram-ae.so.1:_ZN8Telegram15createSharedKeyEP10SecretChatP9bignum_st10QByteArray
libqtelegram-ae.so.1:_ZN8Telegram15defaultHostDcIdEv
libqtelegram-ae.so.1:_ZN8Telegram15defaultHostPortEv
libqtelegram-ae.so.1:_ZN8Telegram15updatesCombinedERK5QListI6UpdateERKS0_I4UserERKS0_I4ChatEiii
libqtelegram-ae.so.1:_ZN8Telegram15updatesGetStateEv
libqtelegram-ae.so.1:_ZN8Telegram16authLogOutAnswerExb
libqtelegram-ae.so.1:_ZN8Telegram16messagesGetChatsERK5QListIiE
libqtelegram-ae.so.1:_ZN8Telegram16onUserAuthorizedExiRK4User
libqtelegram-ae.so.1:_ZN8Telegram16uploadCancelFileEx
libqtelegram-ae.so.1:_ZN8Telegram16usersGetFullUserERK9InputUser
libqtelegram-ae.so.1:_ZN8Telegram17accountGetPrivacyERK15InputPrivacyKey
libqtelegram-ae.so.1:_ZN8Telegram17accountSetPrivacyERK15InputPrivacyKeyRK5QListI16InputPrivacyRuleE
libqtelegram-ae.so.1:_ZN8Telegram17authCheckPasswordERK10QByteArray
libqtelegram-ae.so.1:_ZN8Telegram17authSendCodeErrorEx
libqtelegram-ae.so.1:_ZN8Telegram17authSendSmsAnswerExb
libqtelegram-ae.so.1:_ZN8Telegram17geochatsSendMediaExRK14GeoChatMessageRK5QListI4ChatERKS3_I4UserEi
libqtelegram-ae.so.1:_ZN8Telegram17geochatsSetTypingExb
libqtelegram-ae.so.1:_ZN8Telegram17helpGetInviteTextERK7QString
libqtelegram-ae.so.1:_ZN8Telegram17messagesSendAudioERK9InputPeerxRK10QByteArrayRK7QStringiS8_i
libqtelegram-ae.so.1:_ZN8Telegram17messagesSendAudioERK9InputPeerxRK7QStringii
libqtelegram-ae.so.1:_ZN8Telegram17messagesSendPhotoERK9InputPeerxRK10QByteArrayRK7QStringi
libqtelegram-ae.so.1:_ZN8Telegram17messagesSendPhotoERK9InputPeerxRK7QStringi
libqtelegram-ae.so.1:_ZN8Telegram17messagesSendVideoERK9InputPeerxRK10QByteArrayRK7QStringiiiS8_S5_S8_i
libqtelegram-ae.so.1:_ZN8Telegram17messagesSendVideoERK9InputPeerxRK7QStringiiiS5_i
libqtelegram-ae.so.1:_ZN8Telegram17messagesSetTypingERK9InputPeerRK17SendMessageAction
libqtelegram-ae.so.1:_ZN8Telegram17onContactsBlockedExRK5QListI14ContactBlockedERKS0_I4UserE
libqtelegram-ae.so.1:_ZN8Telegram17onDcProviderReadyEv
libqtelegram-ae.so.1:_ZN8Telegram17onMessagesDialogsExRK5QListI6DialogERKS0_I7MessageERKS0_I4ChatERKS0_I4UserE
libqtelegram-ae.so.1:_ZN8Telegram17onUpdatesCombinedERK5QListI6UpdateE
libqtelegram-ae.so.1:_ZN8Telegram18accountChangePhoneERK7QStringS2_S2_
libqtelegram-ae.so.1:_ZN8Telegram18accountGetPasswordEv
libqtelegram-ae.so.1:_ZN8Telegram18authCheckPhoneSentExRK7QString
libqtelegram-ae.so.1:_ZN8Telegram18authSendCallAnswerExb
libqtelegram-ae.so.1:_ZN8Telegram18authSendCodeAnswerExbi
libqtelegram-ae.so.1:_ZN8Telegram18contactsGetBlockedEii
libqtelegram-ae.so.1:_ZN8Telegram18defaultHostAddressEv
libqtelegram-ae.so.1:_ZN8Telegram18geochatsGetHistoryExiRK5QListI14GeoChatMessageERKS0_I4ChatERKS0_I4UserE
libqtelegram-ae.so.1:_ZN8Telegram18messagesCreateChatERK5QListI9InputUserERK7QString
libqtelegram-ae.so.1:_ZN8Telegram18messagesGetDialogsEiii
libqtelegram-ae.so.1:_ZN8Telegram18messagesGetHistoryERK9InputPeeriii
libqtelegram-ae.so.1:_ZN8Telegram18onAuthLogOutAnswerExb
libqtelegram-ae.so.1:_ZN8Telegram18onContactsContactsExRK5QListI7ContactERKS0_I4UserE
libqtelegram-ae.so.1:_ZN8Telegram18onMessagesDhConfigExiRK10QByteArrayiS2_
libqtelegram-ae.so.1:_ZN8Telegram18processDifferencesExRK5QListI7MessageERKS0_I16EncryptedMessageERKS0_I6UpdateERKS0_I4ChatERKS0_I4UserERK12UpdatesStateb
libqtelegram-ae.so.1:_ZN8Telegram18updateShortMessageEiiRK7QStringiiiiiibb
libqtelegram-ae.so.1:_ZN8Telegram19accountUpdateStatusEb
libqtelegram-ae.so.1:_ZN8Telegram19contactsBlockAnswerExb
libqtelegram-ae.so.1:_ZN8Telegram19contactsBlockResultExb
libqtelegram-ae.so.1:_ZN8Telegram19contactsGetContactsEv
libqtelegram-ae.so.1:_ZN8Telegram19contactsGetStatusesEv
libqtelegram-ae.so.1:_ZN8Telegram19geochatsSendMessageExRK14GeoChatMessageRK5QListI4ChatERKS3_I4UserEi
libqtelegram-ae.so.1:_ZN8Telegram19messagesAddChatUserEiRK9InputUseri
libqtelegram-ae.so.1:_ZN8Telegram19messagesGetFullChatEi
libqtelegram-ae.so.1:_ZN8Telegram19messagesGetMessagesERK5QListIiE
libqtelegram-ae.so.1:_ZN8Telegram19messagesGetStickersERK7QStringS2_
libqtelegram-ae.so.1:_ZN8Telegram19messagesReadHistoryERK9InputPeerii
libqtelegram-ae.so.1:_ZN8Telegram19messagesSendContactERK9InputPeerxRK7QStringS5_S5_i
libqtelegram-ae.so.1:_ZN8Telegram19messagesSendMessageERK9InputPeerxRK7QStringi
libqtelegram-ae.so.1:_ZN8Telegram19onSequenceNumberGapEiii
libqtelegram-ae.so.1:_ZN8Telegram19onUpdatesDifferenceExRK5QListI7MessageERKS0_I16EncryptedMessageERKS0_I6UpdateERKS0_I4ChatERKS0_I4UserERK12UpdatesState
libqtelegram-ae.so.1:_ZN8Telegram19photosGetUserPhotosERK9InputUseriii
libqtelegram-ae.so.1:_ZN8Telegram19toSecretChatMessageERK16EncryptedMessage
libqtelegram-ae.so.1:_ZN8Telegram19uploadGetFileAnswerExRK15StorageFileTypeiRK10QByteArrayiii
libqtelegram-ae.so.1:_ZN8Telegram19usersGetUsersAnswerExRK5QListI4UserE
libqtelegram-ae.so.1:_ZN8Telegram20accountCheckUsernameERK7QString
libqtelegram-ae.so.1:_ZN8Telegram20accountDeleteAccountERK7QString
libqtelegram-ae.so.1:_ZN8Telegram20accountGetAccountTTLEv
libqtelegram-ae.so.1:_ZN8Telegram20accountGetWallPapersEv
libqtelegram-ae.so.1:_ZN8Telegram20accountSetAccountTTLERK14AccountDaysTTL
libqtelegram-ae.so.1:_ZN8Telegram20accountUpdateProfileERK7QStringS2_
libqtelegram-ae.so.1:_ZN8Telegram20authCheckPhoneAnswerExb
libqtelegram-ae.so.1:_ZN8Telegram20geochatsSearchAnswerExiRK5QListI14GeoChatMessageERKS0_I4ChatERKS0_I4UserE
libqtelegram-ae.so.1:_ZN8Telegram20messagesForwardAudioERK9InputPeerxxxi
libqtelegram-ae.so.1:_ZN8Telegram20messagesForwardMediaERK9InputPeerRK10InputMediaxi
libqtelegram-ae.so.1:_ZN8Telegram20messagesForwardPhotoERK9InputPeerxxxi
libqtelegram-ae.so.1:_ZN8Telegram20messagesForwardVideoERK9InputPeerxxxi
libqtelegram-ae.so.1:_ZN8Telegram20messagesSearchAnswerExiRK5QListI7MessageERKS0_I4ChatERKS0_I4UserE
libqtelegram-ae.so.1:_ZN8Telegram20messagesSendDocumentERK9InputPeerxRK10QByteArrayRK7QStringS8_S5_S8_RK5QListI17DocumentAttributeEi
libqtelegram-ae.so.1:_ZN8Telegram20messagesSendDocumentERK9InputPeerxRK7QStringS5_bi
libqtelegram-ae.so.1:_ZN8Telegram20messagesSendGeoPointERK9InputPeerxRK13InputGeoPointi
libqtelegram-ae.so.1:_ZN8Telegram20updatesGetDifferenceEiii
libqtelegram-ae.so.1:_ZN8Telegram20uploadSendFileAnswerExiii
libqtelegram-ae.so.1:_ZN8Telegram21accountRegisterDeviceERK7QStringS2_b
libqtelegram-ae.so.1:_ZN8Telegram21accountUpdateUsernameERK7QString
libqtelegram-ae.so.1:_ZN8Telegram21authCheckedPhoneErrorEx
libqtelegram-ae.so.1:_ZN8Telegram21authSendInvitesAnswerExb
libqtelegram-ae.so.1:_ZN8Telegram21contactsDeleteContactERK9InputUser
libqtelegram-ae.so.1:_ZN8Telegram21contactsUnblockAnswerExb
libqtelegram-ae.so.1:_ZN8Telegram21defaultSettingsFormatEv
libqtelegram-ae.so.1:_ZN8Telegram21geochatsCheckinAnswerExRK14GeoChatMessageRK5QListI4ChatERKS3_I4UserEi
libqtelegram-ae.so.1:_ZN8Telegram21helpGetSuppportAnswerExRK7QStringRK4User
libqtelegram-ae.so.1:_ZN8Telegram21messagesDeleteHistoryERK9InputPeeri
libqtelegram-ae.so.1:_ZN8Telegram21messagesEditChatPhotoEiRK7QStringRK14InputPhotoCrop
libqtelegram-ae.so.1:_ZN8Telegram21messagesEditChatPhotoEixxRK14InputPhotoCrop
libqtelegram-ae.so.1:_ZN8Telegram21messagesEditChatTitleEiRK7QString
libqtelegram-ae.so.1:_ZN8Telegram21messagesGetStickerSetERK15InputStickerSet
libqtelegram-ae.so.1:_ZN8Telegram21messagesReceivedQueueEi
libqtelegram-ae.so.1:_ZN8Telegram21messagesSendBroadcastERK5QListI9InputUserERKS0_IxERK7QStringRK10InputMedia
libqtelegram-ae.so.1:_ZN8Telegram21messagesSendEncryptedEixiRK7QString
libqtelegram-ae.so.1:_ZN8Telegram21onMessagesSentMessageExiiRK12MessageMediaiii
libqtelegram-ae.so.1:_ZN8Telegram21updatesGetStateAnswerExiiiii
libqtelegram-ae.so.1:_ZN8Telegram22contactsDeleteContactsERK5QListI9InputUserE
libqtelegram-ae.so.1:_ZN8Telegram22contactsImportContactsERK5QListI12InputContactEb
libqtelegram-ae.so.1:_ZN8Telegram22helpGetAppUpdateAnswerExib7QStringS0_
libqtelegram-ae.so.1:_ZN8Telegram22messagesDeleteChatUserEiRK9InputUser
libqtelegram-ae.so.1:_ZN8Telegram22messagesDeleteMessagesERK5QListIiE
libqtelegram-ae.so.1:_ZN8Telegram22messagesForwardMessageERK9InputPeeri
libqtelegram-ae.so.1:_ZN8Telegram22messagesGetAllStickersERK7QString
libqtelegram-ae.so.1:_ZN8Telegram22messagesGetChatsAnswerExRK5QListI4ChatE
libqtelegram-ae.so.1:_ZN8Telegram22updateShortChatMessageEiiiRK7QStringiiiiiibb
libqtelegram-ae.so.1:_ZN8Telegram22uploadCancelFileAnswerExb
libqtelegram-ae.so.1:_ZN8Telegram22usersGetFullUserAnswerExRK4UserRK12ContactsLinkRK5PhotoRK18PeerNotifySettingsbRK7QStringSE_
libqtelegram-ae.so.1:_ZN8Telegram23accountUnregisterDeviceERK7QString
libqtelegram-ae.so.1:_ZN8Telegram23authCheckPasswordAnswerExiRK4User
libqtelegram-ae.so.1:_ZN8Telegram23authResetAuthorizationsEv
libqtelegram-ae.so.1:_ZN8Telegram23contactsResolveUsernameERK7QString
libqtelegram-ae.so.1:_ZN8Telegram23helpGetInviteTextAnswerExRK7QString
libqtelegram-ae.so.1:_ZN8Telegram23messagesCheckChatInviteERK7QString
libqtelegram-ae.so.1:_ZN8Telegram23messagesForwardDocumentERK9InputPeerxxxi
libqtelegram-ae.so.1:_ZN8Telegram23messagesForwardMessagesERK9InputPeerRK5QListIiERKS3_IxE
libqtelegram-ae.so.1:_ZN8Telegram23messagesSendAudioAnswerExRK11UpdatesType
libqtelegram-ae.so.1:_ZN8Telegram23messagesSendMediaAnswerExRK11UpdatesType
libqtelegram-ae.so.1:_ZN8Telegram23messagesSendPhotoAnswerExRK11UpdatesType
libqtelegram-ae.so.1:_ZN8Telegram23messagesSendVideoAnswerExRK11UpdatesType
libqtelegram-ae.so.1:_ZN8Telegram23messagesSetEncryptedTTLExii
libqtelegram-ae.so.1:_ZN8Telegram23messagesSetTypingAnswerExb
libqtelegram-ae.so.1:_ZN8Telegram23processSecretChatUpdateERK6Update
libqtelegram-ae.so.1:_ZN8Telegram23updateSecretChatMessageERK17SecretChatMessagei
libqtelegram-ae.so.1:_ZN8Telegram24accountChangePhoneAnswerExRK4User
libqtelegram-ae.so.1:_ZN8Telegram24accountGetAuthorizationsEv
libqtelegram-ae.so.1:_ZN8Telegram24accountGetNotifySettingsERK15InputNotifyPeer
libqtelegram-ae.so.1:_ZN8Telegram24accountGetPasswordAnswerExRK15AccountPassword
libqtelegram-ae.so.1:_ZN8Telegram24contactsGetBlockedAnswerExiRK5QListI14ContactBlockedERKS0_I4UserE
libqtelegram-ae.so.1:_ZN8Telegram24geochatsGetLocatedAnswerExRK5QListI11ChatLocatedERKS0_I14GeoChatMessageERKS0_I4ChatERKS0_I4UserE
libqtelegram-ae.so.1:_ZN8Telegram24geochatsGetRecentsAnswerExiRK5QListI14GeoChatMessageERKS0_I4ChatERKS0_I4UserE
libqtelegram-ae.so.1:_ZN8Telegram24messagesCreateChatAnswerExRK11UpdatesType
libqtelegram-ae.so.1:_ZN8Telegram24messagesExportChatInviteEi
libqtelegram-ae.so.1:_ZN8Telegram24messagesGetDialogsAnswerExiRK5QListI6DialogERKS0_I7MessageERKS0_I4ChatERKS0_I4UserE
libqtelegram-ae.so.1:_ZN8Telegram24messagesGetHistoryAnswerExiRK5QListI7MessageERKS0_I4ChatERKS0_I4UserE
libqtelegram-ae.so.1:_ZN8Telegram24messagesGetStickersAnwerExRK16MessagesStickers
libqtelegram-ae.so.1:_ZN8Telegram24messagesImportChatInviteERK7QString
libqtelegram-ae.so.1:_ZN8Telegram24messagesReceivedMessagesEi
libqtelegram-ae.so.1:_ZN8Telegram24onMessagesSearchMessagesExRK5QListI7MessageERKS0_I4ChatERKS0_I4UserE
libqtelegram-ae.so.1:_ZN8Telegram24onUpdatesDifferenceSliceExRK5QListI7MessageERKS0_I16EncryptedMessageERKS0_I6UpdateERKS0_I4ChatERKS0_I4UserERK12UpdatesState
libqtelegram-ae.so.1:_ZN8Telegram24photosUpdateProfilePhotoExxRK14InputPhotoCrop
libqtelegram-ae.so.1:_ZN8Telegram24photosUploadProfilePhotoERK10QByteArrayRK7QStringS5_RK13InputGeoPointRK14InputPhotoCrop
libqtelegram-ae.so.1:_ZN8Telegram24photosUploadProfilePhotoERK7QStringS2_RK13InputGeoPointRK14InputPhotoCrop
libqtelegram-ae.so.1:_ZN8Telegram24setDefaultSettingsFormatERKN9QSettings6FormatE
libqtelegram-ae.so.1:_ZN8Telegram25accountResetAuthorizationEx
libqtelegram-ae.so.1:_ZN8Telegram25accountUpdateDeviceLockedEi
libqtelegram-ae.so.1:_ZN8Telegram25accountUpdateStatusAnswerExb
libqtelegram-ae.so.1:_ZN8Telegram25authRecoverPasswordAnswerExRK17AuthAuthorization
libqtelegram-ae.so.1:_ZN8Telegram25contactsGetContactsAnswerExb5QListI7ContactES0_I4UserE
libqtelegram-ae.so.1:_ZN8Telegram25contactsGetStatusesAnswerExRK5QListI13ContactStatusE
libqtelegram-ae.so.1:_ZN8Telegram25geochatsGetFullChatAnswerExRK8ChatFullRK5QListI4ChatERKS3_I4UserE
libqtelegram-ae.so.1:_ZN8Telegram25messagesAddChatUserAnswerExRK11UpdatesType
libqtelegram-ae.so.1:_ZN8Telegram25messagesGetFullChatAnswerExRK8ChatFullRK5QListI4ChatERKS3_I4UserE
libqtelegram-ae.so.1:_ZN8Telegram25messagesGetMessagesAnswerExiRK5QListI7MessageERKS0_I4ChatERKS0_I4UserE
libqtelegram-ae.so.1:_ZN8Telegram25messagesInstallStickerSetERK15InputStickerSet
libqtelegram-ae.so.1:_ZN8Telegram25messagesReadHistoryAnswerExiii
libqtelegram-ae.so.1:_ZN8Telegram25messagesSendContactAnswerExRK11UpdatesType
libqtelegram-ae.so.1:_ZN8Telegram25messagesSendMessageAnswerExiiRK12MessageMediaiiiRK5QListI12ContactsLinkE
libqtelegram-ae.so.1:_ZN8Telegram25onAuthCheckPhoneDcChangedEv
libqtelegram-ae.so.1:_ZN8Telegram25onImportContactsDcChangedEv
libqtelegram-ae.so.1:_ZN8Telegram25onMessagesSendMediaAnswerExRK11UpdatesType
libqtelegram-ae.so.1:_ZN8Telegram25photosGetUserPhotosAnswerExiRK5QListI5PhotoERKS0_I4UserE
libqtelegram-ae.so.1:_ZN8Telegram26accountCheckUsernameAnswerExb
libqtelegram-ae.so.1:_ZN8Telegram26accountDeleteAccountAnswerExb
libqtelegram-ae.so.1:_ZN8Telegram26accountGetAccountTTLAnswerExRK14AccountDaysTTL
libqtelegram-ae.so.1:_ZN8Telegram26accountGetPasswordSettingsERK10QByteArray
libqtelegram-ae.so.1:_ZN8Telegram26accountGetWallPapersAnswerExRK5QListI9WallPaperE
libqtelegram-ae.so.1:_ZN8Telegram26accountResetNotifySettingsEv
libqtelegram-ae.so.1:_ZN8Telegram26accountSendChangePhoneCodeERK7QString
libqtelegram-ae.so.1:_ZN8Telegram26accountSentChangePhoneCodeExRK7QStringi
libqtelegram-ae.so.1:_ZN8Telegram26accountSetAccountTTLAnswerExb
libqtelegram-ae.so.1:_ZN8Telegram26accountUpdateProfileAnswerExRK4User
libqtelegram-ae.so.1:_ZN8Telegram26messagesForwardAudioAnswerExRK11UpdatesType
libqtelegram-ae.so.1:_ZN8Telegram26messagesForwardMediaAnswerExRK11UpdatesType
libqtelegram-ae.so.1:_ZN8Telegram26messagesForwardPhotoAnswerExRK11UpdatesType
libqtelegram-ae.so.1:_ZN8Telegram26messagesForwardVideoAnswerExRK11UpdatesType
libqtelegram-ae.so.1:_ZN8Telegram26messagesGetStickerSetAnwerExRK18MessagesStickerSet
libqtelegram-ae.so.1:_ZN8Telegram26messagesReceivedQueueAnwerExRK5QListIxE
libqtelegram-ae.so.1:_ZN8Telegram26messagesSendDocumentAnswerExRK11UpdatesType
libqtelegram-ae.so.1:_ZN8Telegram26messagesSendEncryptedPhotoEixiRK7QString
libqtelegram-ae.so.1:_ZN8Telegram26messagesSendEncryptedVideoEixiRK7QStringiiiRK10QByteArray
libqtelegram-ae.so.1:_ZN8Telegram26messagesSendGeoPointAnswerExRK11UpdatesType
libqtelegram-ae.so.1:_ZN8Telegram26messagesSetEncryptedTypingEib
libqtelegram-ae.so.1:_ZN8Telegram26updatesGetDifferenceAnswerExRK5QListI7MessageERKS0_I17SecretChatMessageERKS0_I6UpdateERKS0_I4ChatERKS0_I4UserERK12UpdatesStateb
libqtelegram-ae.so.1:_ZN8Telegram26updatesGetDifferenceAnswerExii
libqtelegram-ae.so.1:_ZN8Telegram27accountRegisterDeviceAnswerExb
libqtelegram-ae.so.1:_ZN8Telegram27accountUpdateNotifySettingsERK15InputNotifyPeerRK23InputPeerNotifySettings
libqtelegram-ae.so.1:_ZN8Telegram27accountUpdateUsernameAnswerExRK4User
libqtelegram-ae.so.1:_ZN8Telegram27contactsDeleteContactAnswerExRK11ContactLinkS2_RK4User
libqtelegram-ae.so.1:_ZN8Telegram27geochatsCreateGeoChatAnswerExRK14GeoChatMessageRK5QListI4ChatERKS3_I4UserEi
libqtelegram-ae.so.1:_ZN8Telegram27geochatsEditChatPhotoAnswerExRK14GeoChatMessageRK5QListI4ChatERKS3_I4UserEi
libqtelegram-ae.so.1:_ZN8Telegram27geochatsEditChatTitleAnswerExRK14GeoChatMessageRK5QListI4ChatERKS3_I4UserEi
libqtelegram-ae.so.1:_ZN8Telegram27messagesAcceptEncryptedChatEi
libqtelegram-ae.so.1:_ZN8Telegram27messagesCreateEncryptedChatERK9InputUser
libqtelegram-ae.so.1:_ZN8Telegram27messagesDeleteHistoryAnswerExiii
libqtelegram-ae.so.1:_ZN8Telegram27messagesEditChatTitleAnswerExRK11UpdatesType
libqtelegram-ae.so.1:_ZN8Telegram27messagesGetAllStickersAnwerExRK19MessagesAllStickers
libqtelegram-ae.so.1:_ZN8Telegram27messagesReadMessageContentsERK5QListIiE
libqtelegram-ae.so.1:_ZN8Telegram27messagesSendBroadcastAnswerExRK11UpdatesType
libqtelegram-ae.so.1:_ZN8Telegram27messagesSendEncryptedAnswerExiRK13EncryptedFile
libqtelegram-ae.so.1:_ZN8Telegram27messagesUninstallStickerSetERK15InputStickerSet
libqtelegram-ae.so.1:_ZN8Telegram28contactsDeleteContactsAnswerExb
libqtelegram-ae.so.1:_ZN8Telegram28contactsImportContactsAnswerExRK5QListI15ImportedContactERKS0_IxERKS0_I4UserE
libqtelegram-ae.so.1:_ZN8Telegram28messagesCheckChatInviteAnwerExRK10ChatInvite
libqtelegram-ae.so.1:_ZN8Telegram28messagesDeleteChatUserAnswerExRK11UpdatesType
libqtelegram-ae.so.1:_ZN8Telegram28messagesDeleteMessagesAnswerExRK24MessagesAffectedMessages
libqtelegram-ae.so.1:_ZN8Telegram28messagesDiscardEncryptedChatEi
libqtelegram-ae.so.1:_ZN8Telegram28messagesEncryptedChatCreatedEiiix
libqtelegram-ae.so.1:_ZN8Telegram28messagesForwardMessageAnswerExRK11UpdatesType
libqtelegram-ae.so.1:_ZN8Telegram28messagesReadEncryptedHistoryEii
libqtelegram-ae.so.1:_ZN8Telegram28onHelpGetInviteTextDcChangedEv
libqtelegram-ae.so.1:_ZN8Telegram28onMessagesForwardMediaAnswerExRK11UpdatesType
libqtelegram-ae.so.1:_ZN8Telegram28onMessagesGetHistoryMessagesExRK5QListI7MessageERKS0_I4ChatERKS0_I4UserE
libqtelegram-ae.so.1:_ZN8Telegram29accountUnregisterDeviceAnswerExb
libqtelegram-ae.so.1:_ZN8Telegram29accountUpdatePasswordSettingsERK10QByteArrayRK28AccountPasswordInputSettings
libqtelegram-ae.so.1:_ZN8Telegram29authResetAuthorizationsAnswerExb
libqtelegram-ae.so.1:_ZN8Telegram29contactsResolveUsernameAnswerExRK4User
libqtelegram-ae.so.1:_ZN8Telegram29messagesExportChatInviteAnwerExRK18ExportedChatInvite
libqtelegram-ae.so.1:_ZN8Telegram29messagesForwardDocumentAnswerExRK11UpdatesType
libqtelegram-ae.so.1:_ZN8Telegram29messagesForwardMessagesAnswerExRK11UpdatesType
libqtelegram-ae.so.1:_ZN8Telegram29messagesImportChatInviteAnwerExRK11UpdatesType
libqtelegram-ae.so.1:_ZN8Telegram29messagesSendEncryptedDocumentEixiRK7QString
libqtelegram-ae.so.1:_ZN8Telegram29onContactsContactsNotModifiedEx
libqtelegram-ae.so.1:_ZN8Telegram29onMessagesDhConfigNotModifiedExRK10QByteArray
libqtelegram-ae.so.1:_ZN8Telegram29onMessagesGetMessagesMessagesExRK5QListI7MessageERKS0_I4ChatERKS0_I4UserE
libqtelegram-ae.so.1:_ZN8Telegram30accountGetAuthorizationsAnswerExRK21AccountAuthorizations
libqtelegram-ae.so.1:_ZN8Telegram30accountGetNotifySettingsAnswerExRK18PeerNotifySettings
libqtelegram-ae.so.1:_ZN8Telegram30messagesEncryptedChatDiscardedEi
libqtelegram-ae.so.1:_ZN8Telegram30messagesEncryptedChatRequestedEiiix
libqtelegram-ae.so.1:_ZN8Telegram30messagesInstallStickerSetAnwerExb
libqtelegram-ae.so.1:_ZN8Telegram30messagesReceivedMessagesAnswerExRK5QListI21ReceivedNotifyMessageE
libqtelegram-ae.so.1:_ZN8Telegram30onContactsImportContactsAnswerEv
libqtelegram-ae.so.1:_ZN8Telegram30photosUpdateProfilePhotoAnswerExRK16UserProfilePhoto
libqtelegram-ae.so.1:_ZN8Telegram30photosUploadProfilePhotoAnswerExRK5PhotoRK5QListI4UserE
libqtelegram-ae.so.1:_ZN8Telegram31accountResetAuthorizationAnswerExb
libqtelegram-ae.so.1:_ZN8Telegram31accountUpdateDeviceLockedAnswerExb
libqtelegram-ae.so.1:_ZN8Telegram31messagesGetWebPagePreviewAnswerExRK12MessageMedia
libqtelegram-ae.so.1:_ZN8Telegram31messagesSendEncryptedFileAnswerExiRK13EncryptedFile
libqtelegram-ae.so.1:_ZN8Telegram32accountGetPasswordSettingsAnswerExRK23AccountPasswordSettings
libqtelegram-ae.so.1:_ZN8Telegram32accountResetNotifySettingsAnswerExb
libqtelegram-ae.so.1:_ZN8Telegram32messagesSetEncryptedTypingAnswerExb
libqtelegram-ae.so.1:_ZN8Telegram32messagesUninstallStickerSetAnwerExb
libqtelegram-ae.so.1:_ZN8Telegram33accountUpdateNotifySettingsAnswerExb
libqtelegram-ae.so.1:_ZN8Telegram33authRequestPasswordRecoveryAnswerExRK20AuthPasswordRecovery
libqtelegram-ae.so.1:_ZN8Telegram33messagesCreateEncryptedChatAnswerEiiix
libqtelegram-ae.so.1:_ZN8Telegram33messagesReadMessageContentsAnswerExRK24MessagesAffectedMessages
libqtelegram-ae.so.1:_ZN8Telegram33onMessagesDiscardEncryptionResultExb
libqtelegram-ae.so.1:_ZN8Telegram34messagesReadEncryptedHistoryAnswerExb
libqtelegram-ae.so.1:_ZN8Telegram34messagesSendEncryptedServiceAnswerExi13EncryptedFile
libqtelegram-ae.so.1:_ZN8Telegram35accountUpdatePasswordSettingsAnswerExb
libqtelegram-ae.so.1:_ZN8Telegram39onMessagesAcceptEncryptionEncryptedChatExRK13EncryptedChat
libqtelegram-ae.so.1:_ZN8Telegram40messagesEditChatPhotoStatedMessageAnswerExRK11UpdatesType
libqtelegram-ae.so.1:_ZN8Telegram40onMessagesRequestEncryptionEncryptedChatExRK13EncryptedChat
libqtelegram-ae.so.1:_ZN8Telegram4initEv
libqtelegram-ae.so.1:_ZN8Telegram4wakeEv
libqtelegram-ae.so.1:_ZN8Telegram5appIdEv
libqtelegram-ae.so.1:_ZN8Telegram5errorExiRK7QStringS2_
libqtelegram-ae.so.1:_ZN8Telegram5ourIdEv
libqtelegram-ae.so.1:_ZN8Telegram5sleepEv
libqtelegram-ae.so.1:_ZN8Telegram5wokenEv
libqtelegram-ae.so.1:_ZN8Telegram7appHashEv
libqtelegram-ae.so.1:_ZN8Telegram7onErrorExiRK7QStringS2_
libqtelegram-ae.so.1:_ZN8Telegram7updatesERK5QListI6UpdateERKS0_I4UserERKS0_I4ChatEii
libqtelegram-ae.so.1:_ZN8Telegram9connectedEv
libqtelegram-ae.so.1:_ZN8Telegram9onUpdatesERK5QListI6UpdateE
libqtelegram-ae.so.1:_ZN8TelegramC1ERK7QStringssiS2_S2_S2_S2_
libqtelegram-ae.so.1:_ZN8TelegramC2ERK7QStringssiS2_S2_S2_S2_
libqtelegram-ae.so.1:_ZN8TelegramD0Ev
libqtelegram-ae.so.1:_ZN8TelegramD1Ev
libqtelegram-ae.so.1:_ZN8TelegramD2Ev
libqtelegram-ae.so.1:_ZN8UserFull10setBlockedEb
libqtelegram-ae.so.1:_ZN8UserFull12setClassTypeENS_12UserFullTypeE
libqtelegram-ae.so.1:_ZN8UserFull15setProfilePhotoERK5Photo
libqtelegram-ae.so.1:_ZN8UserFull15setRealLastNameERK7QString
libqtelegram-ae.so.1:_ZN8UserFull16setRealFirstNameERK7QString
libqtelegram-ae.so.1:_ZN8UserFull17setNotifySettingsERK18PeerNotifySettings
libqtelegram-ae.so.1:_ZN8UserFull5fetchEP10InboundPkt
libqtelegram-ae.so.1:_ZN8UserFull7setLinkERK12ContactsLink
libqtelegram-ae.so.1:_ZN8UserFull7setUserERK4User
libqtelegram-ae.so.1:_ZN8UserFullC1ENS_12UserFullTypeEP10InboundPkt
libqtelegram-ae.so.1:_ZN8UserFullC1EP10InboundPkt
libqtelegram-ae.so.1:_ZN8UserFullC2ENS_12UserFullTypeEP10InboundPkt
libqtelegram-ae.so.1:_ZN8UserFullC2EP10InboundPkt
libqtelegram-ae.so.1:_ZN8UserFullD0Ev
libqtelegram-ae.so.1:_ZN8UserFullD1Ev
libqtelegram-ae.so.1:_ZN8UserFullD2Ev
libqtelegram-ae.so.1:_ZN8UserFulleqERKS_
libqtelegram-ae.so.1:_ZN9ChatPhoto11setPhotoBigERK12FileLocation
libqtelegram-ae.so.1:_ZN9ChatPhoto12setClassTypeENS_13ChatPhotoTypeE
libqtelegram-ae.so.1:_ZN9ChatPhoto13setPhotoSmallERK12FileLocation
libqtelegram-ae.so.1:_ZN9ChatPhoto5fetchEP10InboundPkt
libqtelegram-ae.so.1:_ZN9ChatPhotoC1ENS_13ChatPhotoTypeEP10InboundPkt
libqtelegram-ae.so.1:_ZN9ChatPhotoC1EP10InboundPkt
libqtelegram-ae.so.1:_ZN9ChatPhotoC2ENS_13ChatPhotoTypeEP10InboundPkt
libqtelegram-ae.so.1:_ZN9ChatPhotoC2EP10InboundPkt
libqtelegram-ae.so.1:_ZN9ChatPhotoD0Ev
libqtelegram-ae.so.1:_ZN9ChatPhotoD1Ev
libqtelegram-ae.so.1:_ZN9ChatPhotoD2Ev
libqtelegram-ae.so.1:_ZN9ChatPhotoeqERKS_
libqtelegram-ae.so.1:_ZN9Decrypter11qt_metacallEN11QMetaObject4CallEiPPv
libqtelegram-ae.so.1:_ZN9Decrypter11qt_metacastEPKc
libqtelegram-ae.so.1:_ZN9Decrypter13setSecretChatEP10SecretChat
libqtelegram-ae.so.1:_ZN9Decrypter17sequenceNumberGapEiii
libqtelegram-ae.so.1:_ZN9Decrypter20checkKeyFingerprintsEv
libqtelegram-ae.so.1:_ZN9Decrypter20decryptEncryptedDataExRK10QByteArray
libqtelegram-ae.so.1:_ZN9Decrypter21fetchDecryptedMessageEv
libqtelegram-ae.so.1:_ZN9Decrypter22fetchSendMessageActionEv
libqtelegram-ae.so.1:_ZN9Decrypter23decryptEncryptedMessageEv
libqtelegram-ae.so.1:_ZN9Decrypter26fetchDecryptedMessageMediaEv
libqtelegram-ae.so.1:_ZN9Decrypter27fetchDecryptedMessageActionEv
libqtelegram-ae.so.1:_ZN9DecrypterC1EP8Settings
libqtelegram-ae.so.1:_ZN9DecrypterC2EP8Settings
libqtelegram-ae.so.1:_ZN9DecrypterD0Ev
libqtelegram-ae.so.1:_ZN9DecrypterD1Ev
libqtelegram-ae.so.1:_ZN9DecrypterD2Ev
libqtelegram-ae.so.1:_ZN9Encrypter13endEncryptionEv
libqtelegram-ae.so.1:_ZN9Encrypter13setSecretChatEP10SecretChat
libqtelegram-ae.so.1:_ZN9Encrypter15startEncryptionEv
libqtelegram-ae.so.1:_ZN9Encrypter17getGeneratedBytesEv
libqtelegram-ae.so.1:_ZN9Encrypter21generateEncryptedDataERK16DecryptedMessage
libqtelegram-ae.so.1:_ZN9Encrypter22appendDecryptedMessageERK16DecryptedMessage
libqtelegram-ae.so.1:_ZN9Encrypter23appendSendMessageActionERK17SendMessageAction
libqtelegram-ae.so.1:_ZN9Encrypter23encryptDecryptedMessageEv
libqtelegram-ae.so.1:_ZN9Encrypter27appendDecryptedMessageMediaERK21DecryptedMessageMedia
libqtelegram-ae.so.1:_ZN9Encrypter28appendDecryptedMessageActionERK22DecryptedMessageAction
libqtelegram-ae.so.1:_ZN9EncrypterC1EP8Settings
libqtelegram-ae.so.1:_ZN9EncrypterC2EP8Settings
libqtelegram-ae.so.1:_ZN9InputFile12setClassTypeENS_13InputFileTypeE
libqtelegram-ae.so.1:_ZN9InputFile14setMd5ChecksumERK7QString
libqtelegram-ae.so.1:_ZN9InputFile5fetchEP10InboundPkt
libqtelegram-ae.so.1:_ZN9InputFile5setIdEx
libqtelegram-ae.so.1:_ZN9InputFile7setNameERK7QString
libqtelegram-ae.so.1:_ZN9InputFile8setPartsEi
libqtelegram-ae.so.1:_ZN9InputFileC1ENS_13InputFileTypeEP10InboundPkt
libqtelegram-ae.so.1:_ZN9InputFileC1EP10InboundPkt
libqtelegram-ae.so.1:_ZN9InputFileC2ENS_13InputFileTypeEP10InboundPkt
libqtelegram-ae.so.1:_ZN9InputFileC2EP10InboundPkt
libqtelegram-ae.so.1:_ZN9InputFileD0Ev
libqtelegram-ae.so.1:_ZN9InputFileD1Ev
libqtelegram-ae.so.1:_ZN9InputFileD2Ev
libqtelegram-ae.so.1:_ZN9InputFileeqERKS_
libqtelegram-ae.so.1:_ZN9InputPeer12setClassTypeENS_13InputPeerTypeE
libqtelegram-ae.so.1:_ZN9InputPeer13setAccessHashEx
libqtelegram-ae.so.1:_ZN9InputPeer5fetchEP10InboundPkt
libqtelegram-ae.so.1:_ZN9InputPeer9setChatIdEi
libqtelegram-ae.so.1:_ZN9InputPeer9setUserIdEi
libqtelegram-ae.so.1:_ZN9InputPeerC1ENS_13InputPeerTypeEP10InboundPkt
libqtelegram-ae.so.1:_ZN9InputPeerC1EP10InboundPkt
libqtelegram-ae.so.1:_ZN9InputPeerC2ENS_13InputPeerTypeEP10InboundPkt
libqtelegram-ae.so.1:_ZN9InputPeerC2EP10InboundPkt
libqtelegram-ae.so.1:_ZN9InputPeerD0Ev
libqtelegram-ae.so.1:_ZN9InputPeerD1Ev
libqtelegram-ae.so.1:_ZN9InputPeerD2Ev
libqtelegram-ae.so.1:_ZN9InputPeereqERKS_
libqtelegram-ae.so.1:_ZN9InputUser12setClassTypeENS_13InputUserTypeE
libqtelegram-ae.so.1:_ZN9InputUser13setAccessHashEx
libqtelegram-ae.so.1:_ZN9InputUser5fetchEP10InboundPkt
libqtelegram-ae.so.1:_ZN9InputUser9setUserIdEi
libqtelegram-ae.so.1:_ZN9InputUserC1ENS_13InputUserTypeEP10InboundPkt
libqtelegram-ae.so.1:_ZN9InputUserC1EP10InboundPkt
libqtelegram-ae.so.1:_ZN9InputUserC2ENS_13InputUserTypeEP10InboundPkt
libqtelegram-ae.so.1:_ZN9InputUserC2EP10InboundPkt
libqtelegram-ae.so.1:_ZN9InputUserD0Ev
libqtelegram-ae.so.1:_ZN9InputUserD1Ev
libqtelegram-ae.so.1:_ZN9InputUserD2Ev
libqtelegram-ae.so.1:_ZN9InputUsereqERKS_
libqtelegram-ae.so.1:_ZN9NearestDc10setCountryERK7QString
libqtelegram-ae.so.1:_ZN9NearestDc12setClassTypeENS_13NearestDcTypeE
libqtelegram-ae.so.1:_ZN9NearestDc12setNearestDcEi
libqtelegram-ae.so.1:_ZN9NearestDc5fetchEP10InboundPkt
libqtelegram-ae.so.1:_ZN9NearestDc9setThisDcEi
libqtelegram-ae.so.1:_ZN9NearestDcC1ENS_13NearestDcTypeEP10InboundPkt
libqtelegram-ae.so.1:_ZN9NearestDcC1EP10InboundPkt
libqtelegram-ae.so.1:_ZN9NearestDcC2ENS_13NearestDcTypeEP10InboundPkt
libqtelegram-ae.so.1:_ZN9NearestDcC2EP10InboundPkt
libqtelegram-ae.so.1:_ZN9NearestDcD0Ev
libqtelegram-ae.so.1:_ZN9NearestDcD1Ev
libqtelegram-ae.so.1:_ZN9NearestDcD2Ev
libqtelegram-ae.so.1:_ZN9NearestDceqERKS_
libqtelegram-ae.so.1:_ZN9PhotoSize11setLocationERK12FileLocation
libqtelegram-ae.so.1:_ZN9PhotoSize12setClassTypeENS_13PhotoSizeTypeE
libqtelegram-ae.so.1:_ZN9PhotoSize4setHEi
libqtelegram-ae.so.1:_ZN9PhotoSize4setWEi
libqtelegram-ae.so.1:_ZN9PhotoSize5fetchEP10InboundPkt
libqtelegram-ae.so.1:_ZN9PhotoSize7setSizeEi
libqtelegram-ae.so.1:_ZN9PhotoSize7setTypeERK7QString
libqtelegram-ae.so.1:_ZN9PhotoSize8setBytesERK10QByteArray
libqtelegram-ae.so.1:_ZN9PhotoSizeC1ENS_13PhotoSizeTypeEP10InboundPkt
libqtelegram-ae.so.1:_ZN9PhotoSizeC1EP10InboundPkt
libqtelegram-ae.so.1:_ZN9PhotoSizeC2ENS_13PhotoSizeTypeEP10InboundPkt
libqtelegram-ae.so.1:_ZN9PhotoSizeC2EP10InboundPkt
libqtelegram-ae.so.1:_ZN9PhotoSizeD0Ev
libqtelegram-ae.so.1:_ZN9PhotoSizeD1Ev
libqtelegram-ae.so.1:_ZN9PhotoSizeD2Ev
libqtelegram-ae.so.1:_ZN9PhotoSizeeqERKS_
libqtelegram-ae.so.1:_ZN9WallPaper10setBgColorEi
libqtelegram-ae.so.1:_ZN9WallPaper12setClassTypeENS_13WallPaperTypeE
libqtelegram-ae.so.1:_ZN9WallPaper5fetchEP10InboundPkt
libqtelegram-ae.so.1:_ZN9WallPaper5setIdEi
libqtelegram-ae.so.1:_ZN9WallPaper8setColorEi
libqtelegram-ae.so.1:_ZN9WallPaper8setSizesERK5QListI9PhotoSizeE
libqtelegram-ae.so.1:_ZN9WallPaper8setTitleERK7QString
libqtelegram-ae.so.1:_ZN9WallPaperC1ENS_13WallPaperTypeEP10InboundPkt
libqtelegram-ae.so.1:_ZN9WallPaperC1EP10InboundPkt
libqtelegram-ae.so.1:_ZN9WallPaperC2ENS_13WallPaperTypeEP10InboundPkt
libqtelegram-ae.so.1:_ZN9WallPaperC2EP10InboundPkt
libqtelegram-ae.so.1:_ZN9WallPaperD0Ev
libqtelegram-ae.so.1:_ZN9WallPaperD1Ev
libqtelegram-ae.so.1:_ZN9WallPaperD2Ev
libqtelegram-ae.so.1:_ZN9WallPapereqERKS_
libqtelegram-ae.so.1:_ZNK10ChatInvite4chatEv
libqtelegram-ae.so.1:_ZNK10ChatInvite4pushEP11OutboundPkt
libqtelegram-ae.so.1:_ZNK10ChatInvite5titleEv
libqtelegram-ae.so.1:_ZNK10ChatInvite9classTypeEv
libqtelegram-ae.so.1:_ZNK10Connection10metaObjectEv
libqtelegram-ae.so.1:_ZNK10DcProvider10metaObjectEv
libqtelegram-ae.so.1:_ZNK10DcProvider12getWorkingDcEv
libqtelegram-ae.so.1:_ZNK10DcProvider5getDcEi
libqtelegram-ae.so.1:_ZNK10DcProvider6getApiEv
libqtelegram-ae.so.1:_ZNK10DcProvider6getDcsEv
libqtelegram-ae.so.1:_ZNK10EventTimer10metaObjectEv
libqtelegram-ae.so.1:_ZNK10InboundPkt6bufferEv
libqtelegram-ae.so.1:_ZNK10InboundPkt6lengthEv
libqtelegram-ae.so.1:_ZNK10InputAudio10accessHashEv
libqtelegram-ae.so.1:_ZNK10InputAudio2idEv
libqtelegram-ae.so.1:_ZNK10InputAudio4pushEP11OutboundPkt
libqtelegram-ae.so.1:_ZNK10InputAudio9classTypeEv
libqtelegram-ae.so.1:_ZNK10InputMedia10attributesEv
libqtelegram-ae.so.1:_ZNK10InputMedia11phoneNumberEv
libqtelegram-ae.so.1:_ZNK10InputMedia12idInputAudioEv
libqtelegram-ae.so.1:_ZNK10InputMedia12idInputPhotoEv
libqtelegram-ae.so.1:_ZNK10InputMedia12idInputVideoEv
libqtelegram-ae.so.1:_ZNK10InputMedia15idInputDocumentEv
libqtelegram-ae.so.1:_ZNK10InputMedia1hEv
libqtelegram-ae.so.1:_ZNK10InputMedia1wEv
libqtelegram-ae.so.1:_ZNK10InputMedia4fileEv
libqtelegram-ae.so.1:_ZNK10InputMedia4pushEP11OutboundPkt
libqtelegram-ae.so.1:_ZNK10InputMedia5thumbEv
libqtelegram-ae.so.1:_ZNK10InputMedia5titleEv
libqtelegram-ae.so.1:_ZNK10InputMedia7addressEv
libqtelegram-ae.so.1:_ZNK10InputMedia7captionEv
libqtelegram-ae.so.1:_ZNK10InputMedia7venueIdEv
libqtelegram-ae.so.1:_ZNK10InputMedia8durationEv
libqtelegram-ae.so.1:_ZNK10InputMedia8geoPointEv
libqtelegram-ae.so.1:_ZNK10InputMedia8lastNameEv
libqtelegram-ae.so.1:_ZNK10InputMedia8mimeTypeEv
libqtelegram-ae.so.1:_ZNK10InputMedia8providerEv
libqtelegram-ae.so.1:_ZNK10InputMedia9classTypeEv
libqtelegram-ae.so.1:_ZNK10InputMedia9firstNameEv
libqtelegram-ae.so.1:_ZNK10InputPhoto10accessHashEv
libqtelegram-ae.so.1:_ZNK10InputPhoto2idEv
libqtelegram-ae.so.1:_ZNK10InputPhoto4pushEP11OutboundPkt
libqtelegram-ae.so.1:_ZNK10InputPhoto9classTypeEv
libqtelegram-ae.so.1:_ZNK10InputVideo10accessHashEv
libqtelegram-ae.so.1:_ZNK10InputVideo2idEv
libqtelegram-ae.so.1:_ZNK10InputVideo4pushEP11OutboundPkt
libqtelegram-ae.so.1:_ZNK10InputVideo9classTypeEv
libqtelegram-ae.so.1:_ZNK10NotifyPeer4peerEv
libqtelegram-ae.so.1:_ZNK10NotifyPeer4pushEP11OutboundPkt
libqtelegram-ae.so.1:_ZNK10NotifyPeer9classTypeEv
libqtelegram-ae.so.1:_ZNK10PrivacyKey4pushEP11OutboundPkt
libqtelegram-ae.so.1:_ZNK10PrivacyKey9classTypeEv
libqtelegram-ae.so.1:_ZNK10SecretChat10accessHashEv
libqtelegram-ae.so.1:_ZNK10SecretChat13participantIdEv
libqtelegram-ae.so.1:_ZNK10SecretChat13requestedUserEv
libqtelegram-ae.so.1:_ZNK10SecretChat4dateEv
libqtelegram-ae.so.1:_ZNK10SecretChat5gAOrBEv
libqtelegram-ae.so.1:_ZNK10SecretChat5layerEv
libqtelegram-ae.so.1:_ZNK10SecretChat5stateEv
libqtelegram-ae.so.1:_ZNK10SecretChat6chatIdEv
libqtelegram-ae.so.1:_ZNK10SecretChat7adminIdEv
libqtelegram-ae.so.1:_ZNK10SecretChat7inSeqNoEv
libqtelegram-ae.so.1:_ZNK10SecretChat8outSeqNoEv
libqtelegram-ae.so.1:_ZNK10StickerSet10accessHashEv
libqtelegram-ae.so.1:_ZNK10StickerSet2idEv
libqtelegram-ae.so.1:_ZNK10StickerSet4pushEP11OutboundPkt
libqtelegram-ae.so.1:_ZNK10StickerSet5titleEv
libqtelegram-ae.so.1:_ZNK10StickerSet9classTypeEv
libqtelegram-ae.so.1:_ZNK10StickerSet9shortNameEv
libqtelegram-ae.so.1:_ZNK10UploadFile4pushEP11OutboundPkt
libqtelegram-ae.so.1:_ZNK10UploadFile4typeEv
libqtelegram-ae.so.1:_ZNK10UploadFile5bytesEv
libqtelegram-ae.so.1:_ZNK10UploadFile5mtimeEv
libqtelegram-ae.so.1:_ZNK10UploadFile9classTypeEv
libqtelegram-ae.so.1:_ZNK10UserStatus4pushEP11OutboundPkt
libqtelegram-ae.so.1:_ZNK10UserStatus7expiresEv
libqtelegram-ae.so.1:_ZNK10UserStatus9classTypeEv
libqtelegram-ae.so.1:_ZNK10UserStatus9wasOnlineEv
libqtelegram-ae.so.1:_ZNK11AbstractApi10metaObjectEv
libqtelegram-ae.so.1:_ZNK11ChatLocated4pushEP11OutboundPkt
libqtelegram-ae.so.1:_ZNK11ChatLocated6chatIdEv
libqtelegram-ae.so.1:_ZNK11ChatLocated8distanceEv
libqtelegram-ae.so.1:_ZNK11ChatLocated9classTypeEv
libqtelegram-ae.so.1:_ZNK11ContactLink4pushEP11OutboundPkt
libqtelegram-ae.so.1:_ZNK11ContactLink9classTypeEv
libqtelegram-ae.so.1:_ZNK11CryptoUtils10metaObjectEv
libqtelegram-ae.so.1:_ZNK11FileHandler10metaObjectEv
libqtelegram-ae.so.1:_ZNK11HelpSupport11phoneNumberEv
libqtelegram-ae.so.1:_ZNK11HelpSupport4pushEP11OutboundPkt
libqtelegram-ae.so.1:_ZNK11HelpSupport4userEv
libqtelegram-ae.so.1:_ZNK11HelpSupport9classTypeEv
libqtelegram-ae.so.1:_ZNK11OutboundPkt6lengthEv
libqtelegram-ae.so.1:_ZNK11PhotosPhoto4pushEP11OutboundPkt
libqtelegram-ae.so.1:_ZNK11PhotosPhoto5photoEv
libqtelegram-ae.so.1:_ZNK11PhotosPhoto5usersEv
libqtelegram-ae.so.1:_ZNK11PhotosPhoto9classTypeEv
libqtelegram-ae.so.1:_ZNK11PrivacyRule4pushEP11OutboundPkt
libqtelegram-ae.so.1:_ZNK11PrivacyRule5usersEv
libqtelegram-ae.so.1:_ZNK11PrivacyRule9classTypeEv
libqtelegram-ae.so.1:_ZNK11StickerPack4pushEP11OutboundPkt
libqtelegram-ae.so.1:_ZNK11StickerPack8emoticonEv
libqtelegram-ae.so.1:_ZNK11StickerPack9classTypeEv
libqtelegram-ae.so.1:_ZNK11StickerPack9documentsEv
libqtelegram-ae.so.1:_ZNK11UpdatesType12replyToMsgIdEv
libqtelegram-ae.so.1:_ZNK11UpdatesType2idEv
libqtelegram-ae.so.1:_ZNK11UpdatesType3ptsEv
libqtelegram-ae.so.1:_ZNK11UpdatesType3seqEv
libqtelegram-ae.so.1:_ZNK11UpdatesType4dateEv
libqtelegram-ae.so.1:_ZNK11UpdatesType4pushEP11OutboundPkt
libqtelegram-ae.so.1:_ZNK11UpdatesType5chatsEv
libqtelegram-ae.so.1:_ZNK11UpdatesType5flagsEv
libqtelegram-ae.so.1:_ZNK11UpdatesType5usersEv
libqtelegram-ae.so.1:_ZNK11UpdatesType6chatIdEv
libqtelegram-ae.so.1:_ZNK11UpdatesType6fromIdEv
libqtelegram-ae.so.1:_ZNK11UpdatesType6updateEv
libqtelegram-ae.so.1:_ZNK11UpdatesType6userIdEv
libqtelegram-ae.so.1:_ZNK11UpdatesType7fwdDateEv
libqtelegram-ae.so.1:_ZNK11UpdatesType7messageEv
libqtelegram-ae.so.1:_ZNK11UpdatesType7updatesEv
libqtelegram-ae.so.1:_ZNK11UpdatesType8ptsCountEv
libqtelegram-ae.so.1:_ZNK11UpdatesType8seqStartEv
libqtelegram-ae.so.1:_ZNK11UpdatesType9classTypeEv
libqtelegram-ae.so.1:_ZNK11UpdatesType9fwdFromIdEv
libqtelegram-ae.so.1:_ZNK12AuthSentCode10isPasswordEv
libqtelegram-ae.so.1:_ZNK12AuthSentCode13phoneCodeHashEv
libqtelegram-ae.so.1:_ZNK12AuthSentCode15phoneRegisteredEv
libqtelegram-ae.so.1:_ZNK12AuthSentCode15sendCallTimeoutEv
libqtelegram-ae.so.1:_ZNK12AuthSentCode4pushEP11OutboundPkt
libqtelegram-ae.so.1:_ZNK12AuthSentCode9classTypeEv
libqtelegram-ae.so.1:_ZNK12ContactFound4pushEP11OutboundPkt
libqtelegram-ae.so.1:_ZNK12ContactFound6userIdEv
libqtelegram-ae.so.1:_ZNK12ContactFound9classTypeEv
libqtelegram-ae.so.1:_ZNK12ContactsLink11foreignLinkEv
libqtelegram-ae.so.1:_ZNK12ContactsLink4pushEP11OutboundPkt
libqtelegram-ae.so.1:_ZNK12ContactsLink4userEv
libqtelegram-ae.so.1:_ZNK12ContactsLink6myLinkEv
libqtelegram-ae.so.1:_ZNK12ContactsLink9classTypeEv
libqtelegram-ae.so.1:_ZNK12DownloadFile10metaObjectEv
libqtelegram-ae.so.1:_ZNK12DownloadFile12expectedSizeEv
libqtelegram-ae.so.1:_ZNK12DownloadFile12fileLocationEv
libqtelegram-ae.so.1:_ZNK12DownloadFile5bytesEv
libqtelegram-ae.so.1:_ZNK12DownloadFile5mtimeEv
libqtelegram-ae.so.1:_ZNK12DownloadFile6offsetEv
libqtelegram-ae.so.1:_ZNK12DownloadFile6partIdEv
libqtelegram-ae.so.1:_ZNK12DownloadFile9encryptedEv
libqtelegram-ae.so.1:_ZNK12FileLocation4dcIdEv
libqtelegram-ae.so.1:_ZNK12FileLocation4pushEP11OutboundPkt
libqtelegram-ae.so.1:_ZNK12FileLocation6secretEv
libqtelegram-ae.so.1:_ZNK12FileLocation7localIdEv
libqtelegram-ae.so.1:_ZNK12FileLocation8volumeIdEv
libqtelegram-ae.so.1:_ZNK12FileLocation9classTypeEv
libqtelegram-ae.so.1:_ZNK12InputContact4pushEP11OutboundPkt
libqtelegram-ae.so.1:_ZNK12InputContact5phoneEv
libqtelegram-ae.so.1:_ZNK12InputContact8clientIdEv
libqtelegram-ae.so.1:_ZNK12InputContact8lastNameEv
libqtelegram-ae.so.1:_ZNK12InputContact9classTypeEv
libqtelegram-ae.so.1:_ZNK12InputContact9firstNameEv
libqtelegram-ae.so.1:_ZNK12InputGeoChat10accessHashEv
libqtelegram-ae.so.1:_ZNK12InputGeoChat4pushEP11OutboundPkt
libqtelegram-ae.so.1:_ZNK12InputGeoChat6chatIdEv
libqtelegram-ae.so.1:_ZNK12InputGeoChat9classTypeEv
libqtelegram-ae.so.1:_ZNK12MessageMedia11phoneNumberEv
libqtelegram-ae.so.1:_ZNK12MessageMedia3geoEv
libqtelegram-ae.so.1:_ZNK12MessageMedia4pushEP11OutboundPkt
libqtelegram-ae.so.1:_ZNK12MessageMedia5audioEv
libqtelegram-ae.so.1:_ZNK12MessageMedia5photoEv
libqtelegram-ae.so.1:_ZNK12MessageMedia5titleEv
libqtelegram-ae.so.1:_ZNK12MessageMedia5videoEv
libqtelegram-ae.so.1:_ZNK12MessageMedia6userIdEv
libqtelegram-ae.so.1:_ZNK12MessageMedia7addressEv
libqtelegram-ae.so.1:_ZNK12MessageMedia7captionEv
libqtelegram-ae.so.1:_ZNK12MessageMedia7venueIdEv
libqtelegram-ae.so.1:_ZNK12MessageMedia7webpageEv
libqtelegram-ae.so.1:_ZNK12MessageMedia8documentEv
libqtelegram-ae.so.1:_ZNK12MessageMedia8lastNameEv
libqtelegram-ae.so.1:_ZNK12MessageMedia8providerEv
libqtelegram-ae.so.1:_ZNK12MessageMedia9classTypeEv
libqtelegram-ae.so.1:_ZNK12MessageMedia9firstNameEv
libqtelegram-ae.so.1:_ZNK12PhotosPhotos4pushEP11OutboundPkt
libqtelegram-ae.so.1:_ZNK12PhotosPhotos5countEv
libqtelegram-ae.so.1:_ZNK12PhotosPhotos5usersEv
libqtelegram-ae.so.1:_ZNK12PhotosPhotos6photosEv
libqtelegram-ae.so.1:_ZNK12PhotosPhotos9classTypeEv
libqtelegram-ae.so.1:_ZNK12UpdatesState11unreadCountEv
libqtelegram-ae.so.1:_ZNK12UpdatesState3ptsEv
libqtelegram-ae.so.1:_ZNK12UpdatesState3qtsEv
libqtelegram-ae.so.1:_ZNK12UpdatesState3seqEv
libqtelegram-ae.so.1:_ZNK12UpdatesState4dateEv
libqtelegram-ae.so.1:_ZNK12UpdatesState4pushEP11OutboundPkt
libqtelegram-ae.so.1:_ZNK12UpdatesState9classTypeEv
libqtelegram-ae.so.1:_ZNK13Authorization10appVersionEv
libqtelegram-ae.so.1:_ZNK13Authorization10dateActiveEv
libqtelegram-ae.so.1:_ZNK13Authorization11dateCreatedEv
libqtelegram-ae.so.1:_ZNK13Authorization11deviceModelEv
libqtelegram-ae.so.1:_ZNK13Authorization13systemVersionEv
libqtelegram-ae.so.1:_ZNK13Authorization2ipEv
libqtelegram-ae.so.1:_ZNK13Authorization4hashEv
libqtelegram-ae.so.1:_ZNK13Authorization4pushEP11OutboundPkt
libqtelegram-ae.so.1:_ZNK13Authorization5apiIdEv
libqtelegram-ae.so.1:_ZNK13Authorization5flagsEv
libqtelegram-ae.so.1:_ZNK13Authorization6regionEv
libqtelegram-ae.so.1:_ZNK13Authorization7appNameEv
libqtelegram-ae.so.1:_ZNK13Authorization7countryEv
libqtelegram-ae.so.1:_ZNK13Authorization8platformEv
libqtelegram-ae.so.1:_ZNK13Authorization9classTypeEv
libqtelegram-ae.so.1:_ZNK13ContactStatus4pushEP11OutboundPkt
libqtelegram-ae.so.1:_ZNK13ContactStatus6statusEv
libqtelegram-ae.so.1:_ZNK13ContactStatus6userIdEv
libqtelegram-ae.so.1:_ZNK13ContactStatus9classTypeEv
libqtelegram-ae.so.1:_ZNK13ContactsFound4pushEP11OutboundPkt
libqtelegram-ae.so.1:_ZNK13ContactsFound5usersEv
libqtelegram-ae.so.1:_ZNK13ContactsFound7resultsEv
libqtelegram-ae.so.1:_ZNK13ContactsFound9classTypeEv
libqtelegram-ae.so.1:_ZNK13EncryptedChat10accessHashEv
libqtelegram-ae.so.1:_ZNK13EncryptedChat13participantIdEv
libqtelegram-ae.so.1:_ZNK13EncryptedChat14keyFingerprintEv
libqtelegram-ae.so.1:_ZNK13EncryptedChat2gAEv
libqtelegram-ae.so.1:_ZNK13EncryptedChat2idEv
libqtelegram-ae.so.1:_ZNK13EncryptedChat4dateEv
libqtelegram-ae.so.1:_ZNK13EncryptedChat4pushEP11OutboundPkt
libqtelegram-ae.so.1:_ZNK13EncryptedChat5gAOrBEv
libqtelegram-ae.so.1:_ZNK13EncryptedChat7adminIdEv
libqtelegram-ae.so.1:_ZNK13EncryptedChat9classTypeEv
libqtelegram-ae.so.1:_ZNK13EncryptedFile10accessHashEv
libqtelegram-ae.so.1:_ZNK13EncryptedFile14keyFingerprintEv
libqtelegram-ae.so.1:_ZNK13EncryptedFile2idEv
libqtelegram-ae.so.1:_ZNK13EncryptedFile4dcIdEv
libqtelegram-ae.so.1:_ZNK13EncryptedFile4pushEP11OutboundPkt
libqtelegram-ae.so.1:_ZNK13EncryptedFile4sizeEv
libqtelegram-ae.so.1:_ZNK13EncryptedFile9classTypeEv
libqtelegram-ae.so.1:_ZNK13HelpAppUpdate2idEv
libqtelegram-ae.so.1:_ZNK13HelpAppUpdate3urlEv
libqtelegram-ae.so.1:_ZNK13HelpAppUpdate4pushEP11OutboundPkt
libqtelegram-ae.so.1:_ZNK13HelpAppUpdate4textEv
libqtelegram-ae.so.1:_ZNK13HelpAppUpdate8criticalEv
libqtelegram-ae.so.1:_ZNK13HelpAppUpdate9classTypeEv
libqtelegram-ae.so.1:_ZNK13InputAppEvent4dataEv
libqtelegram-ae.so.1:_ZNK13InputAppEvent4peerEv
libqtelegram-ae.so.1:_ZNK13InputAppEvent4pushEP11OutboundPkt
libqtelegram-ae.so.1:_ZNK13InputAppEvent4timeEv
libqtelegram-ae.so.1:_ZNK13InputAppEvent4typeEv
libqtelegram-ae.so.1:_ZNK13InputAppEvent9classTypeEv
libqtelegram-ae.so.1:_ZNK13InputDocument10accessHashEv
libqtelegram-ae.so.1:_ZNK13InputDocument2idEv
libqtelegram-ae.so.1:_ZNK13InputDocument4pushEP11OutboundPkt
libqtelegram-ae.so.1:_ZNK13InputDocument9classTypeEv
libqtelegram-ae.so.1:_ZNK13InputGeoPoint3latEv
libqtelegram-ae.so.1:_ZNK13InputGeoPoint4pushEP11OutboundPkt
libqtelegram-ae.so.1:_ZNK13InputGeoPoint9classTypeEv
libqtelegram-ae.so.1:_ZNK13InputGeoPoint9longValueEv
libqtelegram-ae.so.1:_ZNK13MessageAction4pushEP11OutboundPkt
libqtelegram-ae.so.1:_ZNK13MessageAction5photoEv
libqtelegram-ae.so.1:_ZNK13MessageAction5titleEv
libqtelegram-ae.so.1:_ZNK13MessageAction5usersEv
libqtelegram-ae.so.1:_ZNK13MessageAction6userIdEv
libqtelegram-ae.so.1:_ZNK13MessageAction7addressEv
libqtelegram-ae.so.1:_ZNK13MessageAction9classTypeEv
libqtelegram-ae.so.1:_ZNK13MessageAction9inviterIdEv
libqtelegram-ae.so.1:_ZNK13MessagesChats4pushEP11OutboundPkt
libqtelegram-ae.so.1:_ZNK13MessagesChats5chatsEv
libqtelegram-ae.so.1:_ZNK13MessagesChats9classTypeEv
libqtelegram-ae.so.1:_ZNK14AccountDaysTTL4daysEv
libqtelegram-ae.so.1:_ZNK14AccountDaysTTL4pushEP11OutboundPkt
libqtelegram-ae.so.1:_ZNK14AccountDaysTTL9classTypeEv
libqtelegram-ae.so.1:_ZNK14ContactBlocked4dateEv
libqtelegram-ae.so.1:_ZNK14ContactBlocked4pushEP11OutboundPkt
libqtelegram-ae.so.1:_ZNK14ContactBlocked6userIdEv
libqtelegram-ae.so.1:_ZNK14ContactBlocked9classTypeEv
libqtelegram-ae.so.1:_ZNK14GeoChatMessage2idEv
libqtelegram-ae.so.1:_ZNK14GeoChatMessage4dateEv
libqtelegram-ae.so.1:_ZNK14GeoChatMessage4pushEP11OutboundPkt
libqtelegram-ae.so.1:_ZNK14GeoChatMessage5mediaEv
libqtelegram-ae.so.1:_ZNK14GeoChatMessage6actionEv
libqtelegram-ae.so.1:_ZNK14GeoChatMessage6chatIdEv
libqtelegram-ae.so.1:_ZNK14GeoChatMessage6fromIdEv
libqtelegram-ae.so.1:_ZNK14GeoChatMessage7messageEv
libqtelegram-ae.so.1:_ZNK14GeoChatMessage9classTypeEv
libqtelegram-ae.so.1:_ZNK14HelpInviteText4pushEP11OutboundPkt
libqtelegram-ae.so.1:_ZNK14HelpInviteText7messageEv
libqtelegram-ae.so.1:_ZNK14HelpInviteText9classTypeEv
libqtelegram-ae.so.1:_ZNK14InputChatPhoto2idEv
libqtelegram-ae.so.1:_ZNK14InputChatPhoto4cropEv
libqtelegram-ae.so.1:_ZNK14InputChatPhoto4fileEv
libqtelegram-ae.so.1:_ZNK14InputChatPhoto4pushEP11OutboundPkt
libqtelegram-ae.so.1:_ZNK14InputChatPhoto9classTypeEv
libqtelegram-ae.so.1:_ZNK14InputPhotoCrop4pushEP11OutboundPkt
libqtelegram-ae.so.1:_ZNK14InputPhotoCrop7cropTopEv
libqtelegram-ae.so.1:_ZNK14InputPhotoCrop8cropLeftEv
libqtelegram-ae.so.1:_ZNK14InputPhotoCrop9classTypeEv
libqtelegram-ae.so.1:_ZNK14InputPhotoCrop9cropWidthEv
libqtelegram-ae.so.1:_ZNK14MessagesFilter4pushEP11OutboundPkt
libqtelegram-ae.so.1:_ZNK14MessagesFilter9classTypeEv
libqtelegram-ae.so.1:_ZNK14SessionManager10metaObjectEv
libqtelegram-ae.so.1:_ZNK15AccountPassword11currentSaltEv
libqtelegram-ae.so.1:_ZNK15AccountPassword11hasRecoveryEv
libqtelegram-ae.so.1:_ZNK15AccountPassword23emailUnconfirmedPatternEv
libqtelegram-ae.so.1:_ZNK15AccountPassword4hintEv
libqtelegram-ae.so.1:_ZNK15AccountPassword4pushEP11OutboundPkt
libqtelegram-ae.so.1:_ZNK15AccountPassword7newSaltEv
libqtelegram-ae.so.1:_ZNK15AccountPassword9classTypeEv
libqtelegram-ae.so.1:_ZNK15ChatParticipant4dateEv
libqtelegram-ae.so.1:_ZNK15ChatParticipant4pushEP11OutboundPkt
libqtelegram-ae.so.1:_ZNK15ChatParticipant6userIdEv
libqtelegram-ae.so.1:_ZNK15ChatParticipant9classTypeEv
libqtelegram-ae.so.1:_ZNK15ChatParticipant9inviterIdEv
libqtelegram-ae.so.1:_ZNK15ContactsBlocked4pushEP11OutboundPkt
libqtelegram-ae.so.1:_ZNK15ContactsBlocked5countEv
libqtelegram-ae.so.1:_ZNK15ContactsBlocked5usersEv
libqtelegram-ae.so.1:_ZNK15ContactsBlocked7blockedEv
libqtelegram-ae.so.1:_ZNK15ContactsBlocked9classTypeEv
libqtelegram-ae.so.1:_ZNK15DisabledFeature11descriptionEv
libqtelegram-ae.so.1:_ZNK15DisabledFeature4pushEP11OutboundPkt
libqtelegram-ae.so.1:_ZNK15DisabledFeature7featureEv
libqtelegram-ae.so.1:_ZNK15DisabledFeature9classTypeEv
libqtelegram-ae.so.1:_ZNK15GeochatsLocated4pushEP11OutboundPkt
libqtelegram-ae.so.1:_ZNK15GeochatsLocated5chatsEv
libqtelegram-ae.so.1:_ZNK15GeochatsLocated5usersEv
libqtelegram-ae.so.1:_ZNK15GeochatsLocated7resultsEv
libqtelegram-ae.so.1:_ZNK15GeochatsLocated8messagesEv
libqtelegram-ae.so.1:_ZNK15GeochatsLocated9classTypeEv
libqtelegram-ae.so.1:_ZNK15ImportedContact4pushEP11OutboundPkt
libqtelegram-ae.so.1:_ZNK15ImportedContact6userIdEv
libqtelegram-ae.so.1:_ZNK15ImportedContact8clientIdEv
libqtelegram-ae.so.1:_ZNK15ImportedContact9classTypeEv
libqtelegram-ae.so.1:_ZNK15InputNotifyPeer16peerInputGeoChatEv
libqtelegram-ae.so.1:_ZNK15InputNotifyPeer4pushEP11OutboundPkt
libqtelegram-ae.so.1:_ZNK15InputNotifyPeer9classTypeEv
libqtelegram-ae.so.1:_ZNK15InputNotifyPeer9peerInputEv
libqtelegram-ae.so.1:_ZNK15InputPrivacyKey4pushEP11OutboundPkt
libqtelegram-ae.so.1:_ZNK15InputPrivacyKey9classTypeEv
libqtelegram-ae.so.1:_ZNK15InputStickerSet10accessHashEv
libqtelegram-ae.so.1:_ZNK15InputStickerSet2idEv
libqtelegram-ae.so.1:_ZNK15InputStickerSet4pushEP11OutboundPkt
libqtelegram-ae.so.1:_ZNK15InputStickerSet9classTypeEv
libqtelegram-ae.so.1:_ZNK15InputStickerSet9shortNameEv
libqtelegram-ae.so.1:_ZNK15MessagesDialogs4pushEP11OutboundPkt
libqtelegram-ae.so.1:_ZNK15MessagesDialogs5chatsEv
libqtelegram-ae.so.1:_ZNK15MessagesDialogs5countEv
libqtelegram-ae.so.1:_ZNK15MessagesDialogs5usersEv
libqtelegram-ae.so.1:_ZNK15MessagesDialogs7dialogsEv
libqtelegram-ae.so.1:_ZNK15MessagesDialogs8messagesEv
libqtelegram-ae.so.1:_ZNK15MessagesDialogs9classTypeEv
libqtelegram-ae.so.1:_ZNK15MessagesMessage4pushEP11OutboundPkt
libqtelegram-ae.so.1:_ZNK15MessagesMessage9classTypeEv
libqtelegram-ae.so.1:_ZNK15StorageFileType4pushEP11OutboundPkt
libqtelegram-ae.so.1:_ZNK15StorageFileType9classTypeEv
libqtelegram-ae.so.1:_ZNK16AuthCheckedPhone15phoneRegisteredEv
libqtelegram-ae.so.1:_ZNK16AuthCheckedPhone4pushEP11OutboundPkt
libqtelegram-ae.so.1:_ZNK16AuthCheckedPhone9classTypeEv
libqtelegram-ae.so.1:_ZNK16ChatParticipants12participantsEv
libqtelegram-ae.so.1:_ZNK16ChatParticipants4pushEP11OutboundPkt
libqtelegram-ae.so.1:_ZNK16ChatParticipants6chatIdEv
libqtelegram-ae.so.1:_ZNK16ChatParticipants7adminIdEv
libqtelegram-ae.so.1:_ZNK16ChatParticipants7versionEv
libqtelegram-ae.so.1:_ZNK16ChatParticipants9classTypeEv
libqtelegram-ae.so.1:_ZNK16ContactSuggested14mutualContactsEv
libqtelegram-ae.so.1:_ZNK16ContactSuggested4pushEP11OutboundPkt
libqtelegram-ae.so.1:_ZNK16ContactSuggested6userIdEv
libqtelegram-ae.so.1:_ZNK16ContactSuggested9classTypeEv
libqtelegram-ae.so.1:_ZNK16ContactsContacts4pushEP11OutboundPkt
libqtelegram-ae.so.1:_ZNK16ContactsContacts5usersEv
libqtelegram-ae.so.1:_ZNK16ContactsContacts8contactsEv
libqtelegram-ae.so.1:_ZNK16ContactsContacts9classTypeEv
libqtelegram-ae.so.1:_ZNK16EncryptedMessage4dateEv
libqtelegram-ae.so.1:_ZNK16EncryptedMessage4fileEv
libqtelegram-ae.so.1:_ZNK16EncryptedMessage4pushEP11OutboundPkt
libqtelegram-ae.so.1:_ZNK16EncryptedMessage5bytesEv
libqtelegram-ae.so.1:_ZNK16EncryptedMessage6chatIdEv
libqtelegram-ae.so.1:_ZNK16EncryptedMessage8randomIdEv
libqtelegram-ae.so.1:_ZNK16EncryptedMessage9classTypeEv
libqtelegram-ae.so.1:_ZNK16GeochatsMessages4pushEP11OutboundPkt
libqtelegram-ae.so.1:_ZNK16GeochatsMessages5chatsEv
libqtelegram-ae.so.1:_ZNK16GeochatsMessages5countEv
libqtelegram-ae.so.1:_ZNK16GeochatsMessages5usersEv
libqtelegram-ae.so.1:_ZNK16GeochatsMessages8messagesEv
libqtelegram-ae.so.1:_ZNK16GeochatsMessages9classTypeEv
libqtelegram-ae.so.1:_ZNK16InputPrivacyRule4pushEP11OutboundPkt
libqtelegram-ae.so.1:_ZNK16InputPrivacyRule5usersEv
libqtelegram-ae.so.1:_ZNK16InputPrivacyRule9classTypeEv
libqtelegram-ae.so.1:_ZNK16MessagesChatFull4pushEP11OutboundPkt
libqtelegram-ae.so.1:_ZNK16MessagesChatFull5chatsEv
libqtelegram-ae.so.1:_ZNK16MessagesChatFull5usersEv
libqtelegram-ae.so.1:_ZNK16MessagesChatFull8fullChatEv
libqtelegram-ae.so.1:_ZNK16MessagesChatFull9classTypeEv
libqtelegram-ae.so.1:_ZNK16MessagesDhConfig1gEv
libqtelegram-ae.so.1:_ZNK16MessagesDhConfig1pEv
libqtelegram-ae.so.1:_ZNK16MessagesDhConfig4pushEP11OutboundPkt
libqtelegram-ae.so.1:_ZNK16MessagesDhConfig6randomEv
libqtelegram-ae.so.1:_ZNK16MessagesDhConfig7versionEv
libqtelegram-ae.so.1:_ZNK16MessagesDhConfig9classTypeEv
libqtelegram-ae.so.1:_ZNK16MessagesMessages4pushEP11OutboundPkt
libqtelegram-ae.so.1:_ZNK16MessagesMessages5chatsEv
libqtelegram-ae.so.1:_ZNK16MessagesMessages5countEv
libqtelegram-ae.so.1:_ZNK16MessagesMessages5usersEv
libqtelegram-ae.so.1:_ZNK16MessagesMessages8messagesEv
libqtelegram-ae.so.1:_ZNK16MessagesMessages9classTypeEv
libqtelegram-ae.so.1:_ZNK16MessagesStickers4hashEv
libqtelegram-ae.so.1:_ZNK16MessagesStickers4pushEP11OutboundPkt
libqtelegram-ae.so.1:_ZNK16MessagesStickers8stickersEv
libqtelegram-ae.so.1:_ZNK16MessagesStickers9classTypeEv
libqtelegram-ae.so.1:_ZNK16PeerNotifyEvents4pushEP11OutboundPkt
libqtelegram-ae.so.1:_ZNK16PeerNotifyEvents9classTypeEv
libqtelegram-ae.so.1:_ZNK16UploadFileEngine10metaObjectEv
libqtelegram-ae.so.1:_ZNK16UploadFileEngine12hasMorePartsEv
libqtelegram-ae.so.1:_ZNK16UserProfilePhoto10photoSmallEv
libqtelegram-ae.so.1:_ZNK16UserProfilePhoto4pushEP11OutboundPkt
libqtelegram-ae.so.1:_ZNK16UserProfilePhoto7photoIdEv
libqtelegram-ae.so.1:_ZNK16UserProfilePhoto8photoBigEv
libqtelegram-ae.so.1:_ZNK16UserProfilePhoto9classTypeEv
libqtelegram-ae.so.1:_ZNK17AuthAuthorization4pushEP11OutboundPkt
libqtelegram-ae.so.1:_ZNK17AuthAuthorization4userEv
libqtelegram-ae.so.1:_ZNK17AuthAuthorization7expiresEv
libqtelegram-ae.so.1:_ZNK17AuthAuthorization9classTypeEv
libqtelegram-ae.so.1:_ZNK17ContactsSuggested4pushEP11OutboundPkt
libqtelegram-ae.so.1:_ZNK17ContactsSuggested5usersEv
libqtelegram-ae.so.1:_ZNK17ContactsSuggested7resultsEv
libqtelegram-ae.so.1:_ZNK17ContactsSuggested9classTypeEv
libqtelegram-ae.so.1:_ZNK17DocumentAttribute10stickersetEv
libqtelegram-ae.so.1:_ZNK17DocumentAttribute1hEv
libqtelegram-ae.so.1:_ZNK17DocumentAttribute1wEv
libqtelegram-ae.so.1:_ZNK17DocumentAttribute3altEv
libqtelegram-ae.so.1:_ZNK17DocumentAttribute4pushEP11OutboundPkt
libqtelegram-ae.so.1:_ZNK17DocumentAttribute8durationEv
libqtelegram-ae.so.1:_ZNK17DocumentAttribute8fileNameEv
libqtelegram-ae.so.1:_ZNK17DocumentAttribute9classTypeEv
libqtelegram-ae.so.1:_ZNK17InputFileLocation10accessHashEv
libqtelegram-ae.so.1:_ZNK17InputFileLocation2idEv
libqtelegram-ae.so.1:_ZNK17InputFileLocation4pushEP11OutboundPkt
libqtelegram-ae.so.1:_ZNK17InputFileLocation6secretEv
libqtelegram-ae.so.1:_ZNK17InputFileLocation7localIdEv
libqtelegram-ae.so.1:_ZNK17InputFileLocation8volumeIdEv
libqtelegram-ae.so.1:_ZNK17InputFileLocation9classTypeEv
libqtelegram-ae.so.1:_ZNK17SendMessageAction4pushEP11OutboundPkt
libqtelegram-ae.so.1:_ZNK17SendMessageAction8progressEv
libqtelegram-ae.so.1:_ZNK17SendMessageAction9classTypeEv
libqtelegram-ae.so.1:_ZNK17UpdatesDifference11newMessagesEv
libqtelegram-ae.so.1:_ZNK17UpdatesDifference12otherUpdatesEv
libqtelegram-ae.so.1:_ZNK17UpdatesDifference17intermediateStateEv
libqtelegram-ae.so.1:_ZNK17UpdatesDifference20newEncryptedMessagesEv
libqtelegram-ae.so.1:_ZNK17UpdatesDifference3seqEv
libqtelegram-ae.so.1:_ZNK17UpdatesDifference4dateEv
libqtelegram-ae.so.1:_ZNK17UpdatesDifference4pushEP11OutboundPkt
libqtelegram-ae.so.1:_ZNK17UpdatesDifference5chatsEv
libqtelegram-ae.so.1:_ZNK17UpdatesDifference5stateEv
libqtelegram-ae.so.1:_ZNK17UpdatesDifference5usersEv
libqtelegram-ae.so.1:_ZNK17UpdatesDifference9classTypeEv
libqtelegram-ae.so.1:_ZNK18ExportedChatInvite4linkEv
libqtelegram-ae.so.1:_ZNK18ExportedChatInvite4pushEP11OutboundPkt
libqtelegram-ae.so.1:_ZNK18ExportedChatInvite9classTypeEv
libqtelegram-ae.so.1:_ZNK18InputEncryptedChat10accessHashEv
libqtelegram-ae.so.1:_ZNK18InputEncryptedChat4pushEP11OutboundPkt
libqtelegram-ae.so.1:_ZNK18InputEncryptedChat6chatIdEv
libqtelegram-ae.so.1:_ZNK18InputEncryptedChat9classTypeEv
libqtelegram-ae.so.1:_ZNK18InputEncryptedFile10accessHashEv
libqtelegram-ae.so.1:_ZNK18InputEncryptedFile11md5ChecksumEv
libqtelegram-ae.so.1:_ZNK18InputEncryptedFile14keyFingerprintEv
libqtelegram-ae.so.1:_ZNK18InputEncryptedFile2idEv
libqtelegram-ae.so.1:_ZNK18InputEncryptedFile4pushEP11OutboundPkt
libqtelegram-ae.so.1:_ZNK18InputEncryptedFile5partsEv
libqtelegram-ae.so.1:_ZNK18InputEncryptedFile9classTypeEv
libqtelegram-ae.so.1:_ZNK18MessagesStickerSet3setEv
libqtelegram-ae.so.1:_ZNK18MessagesStickerSet4pushEP11OutboundPkt
libqtelegram-ae.so.1:_ZNK18MessagesStickerSet5packsEv
libqtelegram-ae.so.1:_ZNK18MessagesStickerSet9classTypeEv
libqtelegram-ae.so.1:_ZNK18MessagesStickerSet9documentsEv
libqtelegram-ae.so.1:_ZNK18PeerNotifySettings10eventsMaskEv
libqtelegram-ae.so.1:_ZNK18PeerNotifySettings12showPreviewsEv
libqtelegram-ae.so.1:_ZNK18PeerNotifySettings4pushEP11OutboundPkt
libqtelegram-ae.so.1:_ZNK18PeerNotifySettings5soundEv
libqtelegram-ae.so.1:_ZNK18PeerNotifySettings9classTypeEv
libqtelegram-ae.so.1:_ZNK18PeerNotifySettings9muteUntilEv
libqtelegram-ae.so.1:_ZNK18TelegramTypeObject5errorEv
libqtelegram-ae.so.1:_ZNK19AccountPrivacyRules4pushEP11OutboundPkt
libqtelegram-ae.so.1:_ZNK19AccountPrivacyRules5rulesEv
libqtelegram-ae.so.1:_ZNK19AccountPrivacyRules5usersEv
libqtelegram-ae.so.1:_ZNK19AccountPrivacyRules9classTypeEv
libqtelegram-ae.so.1:_ZNK19MessagesAllStickers4hashEv
libqtelegram-ae.so.1:_ZNK19MessagesAllStickers4pushEP11OutboundPkt
libqtelegram-ae.so.1:_ZNK19MessagesAllStickers4setsEv
libqtelegram-ae.so.1:_ZNK19MessagesAllStickers5packsEv
libqtelegram-ae.so.1:_ZNK19MessagesAllStickers9classTypeEv
libqtelegram-ae.so.1:_ZNK19MessagesAllStickers9documentsEv
libqtelegram-ae.so.1:_ZNK19MessagesSentMessage2idEv
libqtelegram-ae.so.1:_ZNK19MessagesSentMessage3ptsEv
libqtelegram-ae.so.1:_ZNK19MessagesSentMessage3seqEv
libqtelegram-ae.so.1:_ZNK19MessagesSentMessage4dateEv
libqtelegram-ae.so.1:_ZNK19MessagesSentMessage4pushEP11OutboundPkt
libqtelegram-ae.so.1:_ZNK19MessagesSentMessage5linksEv
libqtelegram-ae.so.1:_ZNK19MessagesSentMessage5mediaEv
libqtelegram-ae.so.1:_ZNK19MessagesSentMessage8ptsCountEv
libqtelegram-ae.so.1:_ZNK19MessagesSentMessage9classTypeEv
libqtelegram-ae.so.1:_ZNK20AuthPasswordRecovery12emailPatternEv
libqtelegram-ae.so.1:_ZNK20AuthPasswordRecovery4pushEP11OutboundPkt
libqtelegram-ae.so.1:_ZNK20AuthPasswordRecovery9classTypeEv
libqtelegram-ae.so.1:_ZNK21AccountAuthorizations14authorizationsEv
libqtelegram-ae.so.1:_ZNK21AccountAuthorizations4pushEP11OutboundPkt
libqtelegram-ae.so.1:_ZNK21AccountAuthorizations9classTypeEv
libqtelegram-ae.so.1:_ZNK21GeochatsStatedMessage3seqEv
libqtelegram-ae.so.1:_ZNK21GeochatsStatedMessage4pushEP11OutboundPkt
libqtelegram-ae.so.1:_ZNK21GeochatsStatedMessage5chatsEv
libqtelegram-ae.so.1:_ZNK21GeochatsStatedMessage5usersEv
libqtelegram-ae.so.1:_ZNK21GeochatsStatedMessage7messageEv
libqtelegram-ae.so.1:_ZNK21GeochatsStatedMessage9classTypeEv
libqtelegram-ae.so.1:_ZNK21InputPeerNotifyEvents4pushEP11OutboundPkt
libqtelegram-ae.so.1:_ZNK21InputPeerNotifyEvents9classTypeEv
libqtelegram-ae.so.1:_ZNK21ReceivedNotifyMessage2idEv
libqtelegram-ae.so.1:_ZNK21ReceivedNotifyMessage4pushEP11OutboundPkt
libqtelegram-ae.so.1:_ZNK21ReceivedNotifyMessage5flagsEv
libqtelegram-ae.so.1:_ZNK21ReceivedNotifyMessage9classTypeEv
libqtelegram-ae.so.1:_ZNK23AccountPasswordSettings4pushEP11OutboundPkt
libqtelegram-ae.so.1:_ZNK23AccountPasswordSettings5emailEv
libqtelegram-ae.so.1:_ZNK23AccountPasswordSettings9classTypeEv
libqtelegram-ae.so.1:_ZNK23InputPeerNotifySettings10eventsMaskEv
libqtelegram-ae.so.1:_ZNK23InputPeerNotifySettings12showPreviewsEv
libqtelegram-ae.so.1:_ZNK23InputPeerNotifySettings4pushEP11OutboundPkt
libqtelegram-ae.so.1:_ZNK23InputPeerNotifySettings5soundEv
libqtelegram-ae.so.1:_ZNK23InputPeerNotifySettings9classTypeEv
libqtelegram-ae.so.1:_ZNK23InputPeerNotifySettings9muteUntilEv
libqtelegram-ae.so.1:_ZNK23MessagesAffectedHistory3ptsEv
libqtelegram-ae.so.1:_ZNK23MessagesAffectedHistory4pushEP11OutboundPkt
libqtelegram-ae.so.1:_ZNK23MessagesAffectedHistory6offsetEv
libqtelegram-ae.so.1:_ZNK23MessagesAffectedHistory8ptsCountEv
libqtelegram-ae.so.1:_ZNK23MessagesAffectedHistory9classTypeEv
libqtelegram-ae.so.1:_ZNK24ContactsImportedContacts13retryContactsEv
libqtelegram-ae.so.1:_ZNK24ContactsImportedContacts4pushEP11OutboundPkt
libqtelegram-ae.so.1:_ZNK24ContactsImportedContacts5usersEv
libqtelegram-ae.so.1:_ZNK24ContactsImportedContacts8importedEv
libqtelegram-ae.so.1:_ZNK24ContactsImportedContacts9classTypeEv
libqtelegram-ae.so.1:_ZNK24MessagesAffectedMessages3ptsEv
libqtelegram-ae.so.1:_ZNK24MessagesAffectedMessages4pushEP11OutboundPkt
libqtelegram-ae.so.1:_ZNK24MessagesAffectedMessages8ptsCountEv
libqtelegram-ae.so.1:_ZNK24MessagesAffectedMessages9classTypeEv
libqtelegram-ae.so.1:_ZNK25AuthExportedAuthorization2idEv
libqtelegram-ae.so.1:_ZNK25AuthExportedAuthorization4pushEP11OutboundPkt
libqtelegram-ae.so.1:_ZNK25AuthExportedAuthorization5bytesEv
libqtelegram-ae.so.1:_ZNK25AuthExportedAuthorization9classTypeEv
libqtelegram-ae.so.1:_ZNK26AccountSentChangePhoneCode13phoneCodeHashEv
libqtelegram-ae.so.1:_ZNK26AccountSentChangePhoneCode15sendCallTimeoutEv
libqtelegram-ae.so.1:_ZNK26AccountSentChangePhoneCode4pushEP11OutboundPkt
libqtelegram-ae.so.1:_ZNK26AccountSentChangePhoneCode9classTypeEv
libqtelegram-ae.so.1:_ZNK28AccountPasswordInputSettings15newPasswordHashEv
libqtelegram-ae.so.1:_ZNK28AccountPasswordInputSettings4hintEv
libqtelegram-ae.so.1:_ZNK28AccountPasswordInputSettings4pushEP11OutboundPkt
libqtelegram-ae.so.1:_ZNK28AccountPasswordInputSettings5emailEv
libqtelegram-ae.so.1:_ZNK28AccountPasswordInputSettings5flagsEv
libqtelegram-ae.so.1:_ZNK28AccountPasswordInputSettings7newSaltEv
libqtelegram-ae.so.1:_ZNK28AccountPasswordInputSettings9classTypeEv
libqtelegram-ae.so.1:_ZNK28MessagesSentEncryptedMessage4dateEv
libqtelegram-ae.so.1:_ZNK28MessagesSentEncryptedMessage4fileEv
libqtelegram-ae.so.1:_ZNK28MessagesSentEncryptedMessage4pushEP11OutboundPkt
libqtelegram-ae.so.1:_ZNK28MessagesSentEncryptedMessage9classTypeEv
libqtelegram-ae.so.1:_ZNK3Api10metaObjectEv
libqtelegram-ae.so.1:_ZNK4Chat10accessHashEv
libqtelegram-ae.so.1:_ZNK4Chat17participantsCountEv
libqtelegram-ae.so.1:_ZNK4Chat2idEv
libqtelegram-ae.so.1:_ZNK4Chat3geoEv
libqtelegram-ae.so.1:_ZNK4Chat4dateEv
libqtelegram-ae.so.1:_ZNK4Chat4leftEv
libqtelegram-ae.so.1:_ZNK4Chat4pushEP11OutboundPkt
libqtelegram-ae.so.1:_ZNK4Chat5photoEv
libqtelegram-ae.so.1:_ZNK4Chat5titleEv
libqtelegram-ae.so.1:_ZNK4Chat5venueEv
libqtelegram-ae.so.1:_ZNK4Chat7addressEv
libqtelegram-ae.so.1:_ZNK4Chat7versionEv
libqtelegram-ae.so.1:_ZNK4Chat9checkedInEv
libqtelegram-ae.so.1:_ZNK4Chat9classTypeEv
libqtelegram-ae.so.1:_ZNK4File10metaObjectEv
libqtelegram-ae.so.1:_ZNK4Peer4pushEP11OutboundPkt
libqtelegram-ae.so.1:_ZNK4Peer6chatIdEv
libqtelegram-ae.so.1:_ZNK4Peer6userIdEv
libqtelegram-ae.so.1:_ZNK4Peer9classTypeEv
libqtelegram-ae.so.1:_ZNK4User10accessHashEv
libqtelegram-ae.so.1:_ZNK4User2idEv
libqtelegram-ae.so.1:_ZNK4User4pushEP11OutboundPkt
libqtelegram-ae.so.1:_ZNK4User5phoneEv
libqtelegram-ae.so.1:_ZNK4User5photoEv
libqtelegram-ae.so.1:_ZNK4User6statusEv
libqtelegram-ae.so.1:_ZNK4User8lastNameEv
libqtelegram-ae.so.1:_ZNK4User8usernameEv
libqtelegram-ae.so.1:_ZNK4User9classTypeEv
libqtelegram-ae.so.1:_ZNK4User9firstNameEv
libqtelegram-ae.so.1:_ZNK5Audio10accessHashEv
libqtelegram-ae.so.1:_ZNK5Audio2idEv
libqtelegram-ae.so.1:_ZNK5Audio4dateEv
libqtelegram-ae.so.1:_ZNK5Audio4dcIdEv
libqtelegram-ae.so.1:_ZNK5Audio4pushEP11OutboundPkt
libqtelegram-ae.so.1:_ZNK5Audio4sizeEv
libqtelegram-ae.so.1:_ZNK5Audio6userIdEv
libqtelegram-ae.so.1:_ZNK5Audio8durationEv
libqtelegram-ae.so.1:_ZNK5Audio8mimeTypeEv
libqtelegram-ae.so.1:_ZNK5Audio9classTypeEv
libqtelegram-ae.so.1:_ZNK5Photo10accessHashEv
libqtelegram-ae.so.1:_ZNK5Photo2idEv
libqtelegram-ae.so.1:_ZNK5Photo3geoEv
libqtelegram-ae.so.1:_ZNK5Photo4dateEv
libqtelegram-ae.so.1:_ZNK5Photo4pushEP11OutboundPkt
libqtelegram-ae.so.1:_ZNK5Photo5sizesEv
libqtelegram-ae.so.1:_ZNK5Photo6userIdEv
libqtelegram-ae.so.1:_ZNK5Photo9classTypeEv
libqtelegram-ae.so.1:_ZNK5Query10metaObjectEv
libqtelegram-ae.so.1:_ZNK5Utils10metaObjectEv
libqtelegram-ae.so.1:_ZNK5Video10accessHashEv
libqtelegram-ae.so.1:_ZNK5Video1hEv
libqtelegram-ae.so.1:_ZNK5Video1wEv
libqtelegram-ae.so.1:_ZNK5Video2idEv
libqtelegram-ae.so.1:_ZNK5Video4dateEv
libqtelegram-ae.so.1:_ZNK5Video4dcIdEv
libqtelegram-ae.so.1:_ZNK5Video4pushEP11OutboundPkt
libqtelegram-ae.so.1:_ZNK5Video4sizeEv
libqtelegram-ae.so.1:_ZNK5Video5thumbEv
libqtelegram-ae.so.1:_ZNK5Video6userIdEv
libqtelegram-ae.so.1:_ZNK5Video8durationEv
libqtelegram-ae.so.1:_ZNK5Video9classTypeEv
libqtelegram-ae.so.1:_ZNK6Config11chatBigSizeEv
libqtelegram-ae.so.1:_ZNK6Config11chatSizeMaxEv
libqtelegram-ae.so.1:_ZNK6Config13pushChatLimitEv
libqtelegram-ae.so.1:_ZNK6Config16broadcastSizeMaxEv
libqtelegram-ae.so.1:_ZNK6Config16disabledFeaturesEv
libqtelegram-ae.so.1:_ZNK6Config16pushChatPeriodMsEv
libqtelegram-ae.so.1:_ZNK6Config17forwardedCountMaxEv
libqtelegram-ae.so.1:_ZNK6Config18notifyCloudDelayMsEv
libqtelegram-ae.so.1:_ZNK6Config20notifyDefaultDelayMsEv
libqtelegram-ae.so.1:_ZNK6Config20offlineBlurTimeoutMsEv
libqtelegram-ae.so.1:_ZNK6Config20offlineIdleTimeoutMsEv
libqtelegram-ae.so.1:_ZNK6Config20onlineCloudTimeoutMsEv
libqtelegram-ae.so.1:_ZNK6Config20onlineUpdatePeriodMsEv
libqtelegram-ae.so.1:_ZNK6Config4dateEv
libqtelegram-ae.so.1:_ZNK6Config4pushEP11OutboundPkt
libqtelegram-ae.so.1:_ZNK6Config6thisDcEv
libqtelegram-ae.so.1:_ZNK6Config7expiresEv
libqtelegram-ae.so.1:_ZNK6Config8testModeEv
libqtelegram-ae.so.1:_ZNK6Config9classTypeEv
libqtelegram-ae.so.1:_ZNK6Config9dcOptionsEv
libqtelegram-ae.so.1:_ZNK6DCAuth10metaObjectEv
libqtelegram-ae.so.1:_ZNK6Dialog10topMessageEv
libqtelegram-ae.so.1:_ZNK6Dialog11unreadCountEv
libqtelegram-ae.so.1:_ZNK6Dialog14notifySettingsEv
libqtelegram-ae.so.1:_ZNK6Dialog14readInboxMaxIdEv
libqtelegram-ae.so.1:_ZNK6Dialog4peerEv
libqtelegram-ae.so.1:_ZNK6Dialog4pushEP11OutboundPkt
libqtelegram-ae.so.1:_ZNK6Dialog9classTypeEv
libqtelegram-ae.so.1:_ZNK6Update10peerNotifyEv
libqtelegram-ae.so.1:_ZNK6Update11foreignLinkEv
libqtelegram-ae.so.1:_ZNK6Update12participantsEv
libqtelegram-ae.so.1:_ZNK6Update13messageStringEv
libqtelegram-ae.so.1:_ZNK6Update14messageGeoChatEv
libqtelegram-ae.so.1:_ZNK6Update14notifySettingsEv
libqtelegram-ae.so.1:_ZNK6Update16messageEncryptedEv
libqtelegram-ae.so.1:_ZNK6Update2idEv
libqtelegram-ae.so.1:_ZNK6Update3keyEv
libqtelegram-ae.so.1:_ZNK6Update3ptsEv
libqtelegram-ae.so.1:_ZNK6Update3qtsEv
libqtelegram-ae.so.1:_ZNK6Update4chatEv
libqtelegram-ae.so.1:_ZNK6Update4dateEv
libqtelegram-ae.so.1:_ZNK6Update4peerEv
libqtelegram-ae.so.1:_ZNK6Update4pushEP11OutboundPkt
libqtelegram-ae.so.1:_ZNK6Update4typeEv
libqtelegram-ae.so.1:_ZNK6Update5maxIdEv
libqtelegram-ae.so.1:_ZNK6Update5mediaEv
libqtelegram-ae.so.1:_ZNK6Update5phoneEv
libqtelegram-ae.so.1:_ZNK6Update5photoEv
libqtelegram-ae.so.1:_ZNK6Update5popupEv
libqtelegram-ae.so.1:_ZNK6Update5rulesEv
libqtelegram-ae.so.1:_ZNK6Update6actionEv
libqtelegram-ae.so.1:_ZNK6Update6chatIdEv
libqtelegram-ae.so.1:_ZNK6Update6deviceEv
libqtelegram-ae.so.1:_ZNK6Update6myLinkEv
libqtelegram-ae.so.1:_ZNK6Update6statusEv
libqtelegram-ae.so.1:_ZNK6Update6userIdEv
libqtelegram-ae.so.1:_ZNK6Update7blockedEv
libqtelegram-ae.so.1:_ZNK6Update7maxDateEv
libqtelegram-ae.so.1:_ZNK6Update7messageEv
libqtelegram-ae.so.1:_ZNK6Update7versionEv
libqtelegram-ae.so.1:_ZNK6Update7webpageEv
libqtelegram-ae.so.1:_ZNK6Update8lastNameEv
libqtelegram-ae.so.1:_ZNK6Update8locationEv
libqtelegram-ae.so.1:_ZNK6Update8messagesEv
libqtelegram-ae.so.1:_ZNK6Update8previousEv
libqtelegram-ae.so.1:_ZNK6Update8ptsCountEv
libqtelegram-ae.so.1:_ZNK6Update8randomIdEv
libqtelegram-ae.so.1:_ZNK6Update8usernameEv
libqtelegram-ae.so.1:_ZNK6Update9authKeyIdEv
libqtelegram-ae.so.1:_ZNK6Update9classTypeEv
libqtelegram-ae.so.1:_ZNK6Update9dcOptionsEv
libqtelegram-ae.so.1:_ZNK6Update9firstNameEv
libqtelegram-ae.so.1:_ZNK6Update9inviterIdEv
libqtelegram-ae.so.1:_ZNK7Contact4pushEP11OutboundPkt
libqtelegram-ae.so.1:_ZNK7Contact6mutualEv
libqtelegram-ae.so.1:_ZNK7Contact6userIdEv
libqtelegram-ae.so.1:_ZNK7Contact9classTypeEv
libqtelegram-ae.so.1:_ZNK7Message12replyToMsgIdEv
libqtelegram-ae.so.1:_ZNK7Message2idEv
libqtelegram-ae.so.1:_ZNK7Message4dateEv
libqtelegram-ae.so.1:_ZNK7Message4pushEP11OutboundPkt
libqtelegram-ae.so.1:_ZNK7Message4toIdEv
libqtelegram-ae.so.1:_ZNK7Message5flagsEv
libqtelegram-ae.so.1:_ZNK7Message5mediaEv
libqtelegram-ae.so.1:_ZNK7Message6actionEv
libqtelegram-ae.so.1:_ZNK7Message6fromIdEv
libqtelegram-ae.so.1:_ZNK7Message7fwdDateEv
libqtelegram-ae.so.1:_ZNK7Message7messageEv
libqtelegram-ae.so.1:_ZNK7Message9classTypeEv
libqtelegram-ae.so.1:_ZNK7Message9fwdFromIdEv
libqtelegram-ae.so.1:_ZNK7Session10metaObjectEv
libqtelegram-ae.so.1:_ZNK7WebPage10displayUrlEv
libqtelegram-ae.so.1:_ZNK7WebPage10embedWidthEv
libqtelegram-ae.so.1:_ZNK7WebPage11descriptionEv
libqtelegram-ae.so.1:_ZNK7WebPage11embedHeightEv
libqtelegram-ae.so.1:_ZNK7WebPage2idEv
libqtelegram-ae.so.1:_ZNK7WebPage3urlEv
libqtelegram-ae.so.1:_ZNK7WebPage4dateEv
libqtelegram-ae.so.1:_ZNK7WebPage4pushEP11OutboundPkt
libqtelegram-ae.so.1:_ZNK7WebPage4typeEv
libqtelegram-ae.so.1:_ZNK7WebPage5flagsEv
libqtelegram-ae.so.1:_ZNK7WebPage5photoEv
libqtelegram-ae.so.1:_ZNK7WebPage5titleEv
libqtelegram-ae.so.1:_ZNK7WebPage6authorEv
libqtelegram-ae.so.1:_ZNK7WebPage8durationEv
libqtelegram-ae.so.1:_ZNK7WebPage8embedUrlEv
libqtelegram-ae.so.1:_ZNK7WebPage8siteNameEv
libqtelegram-ae.so.1:_ZNK7WebPage9classTypeEv
libqtelegram-ae.so.1:_ZNK7WebPage9embedTypeEv
libqtelegram-ae.so.1:_ZNK8Asserter10metaObjectEv
libqtelegram-ae.so.1:_ZNK8ChatFull12participantsEv
libqtelegram-ae.so.1:_ZNK8ChatFull14exportedInviteEv
libqtelegram-ae.so.1:_ZNK8ChatFull14notifySettingsEv
libqtelegram-ae.so.1:_ZNK8ChatFull2idEv
libqtelegram-ae.so.1:_ZNK8ChatFull4pushEP11OutboundPkt
libqtelegram-ae.so.1:_ZNK8ChatFull9chatPhotoEv
libqtelegram-ae.so.1:_ZNK8ChatFull9classTypeEv
libqtelegram-ae.so.1:_ZNK8DcOption2idEv
libqtelegram-ae.so.1:_ZNK8DcOption4portEv
libqtelegram-ae.so.1:_ZNK8DcOption4pushEP11OutboundPkt
libqtelegram-ae.so.1:_ZNK8DcOption8hostnameEv
libqtelegram-ae.so.1:_ZNK8DcOption9classTypeEv
libqtelegram-ae.so.1:_ZNK8DcOption9ipAddressEv
libqtelegram-ae.so.1:_ZNK8Document10accessHashEv
libqtelegram-ae.so.1:_ZNK8Document10attributesEv
libqtelegram-ae.so.1:_ZNK8Document2idEv
libqtelegram-ae.so.1:_ZNK8Document4dateEv
libqtelegram-ae.so.1:_ZNK8Document4dcIdEv
libqtelegram-ae.so.1:_ZNK8Document4pushEP11OutboundPkt
libqtelegram-ae.so.1:_ZNK8Document4sizeEv
libqtelegram-ae.so.1:_ZNK8Document5thumbEv
libqtelegram-ae.so.1:_ZNK8Document8mimeTypeEv
libqtelegram-ae.so.1:_ZNK8Document9classTypeEv
libqtelegram-ae.so.1:_ZNK8GeoPoint3latEv
libqtelegram-ae.so.1:_ZNK8GeoPoint4pushEP11OutboundPkt
libqtelegram-ae.so.1:_ZNK8GeoPoint9classTypeEv
libqtelegram-ae.so.1:_ZNK8GeoPoint9longValueEv
libqtelegram-ae.so.1:_ZNK8Settings10metaObjectEv
libqtelegram-ae.so.1:_ZNK8Telegram10metaObjectEv
libqtelegram-ae.so.1:_ZNK8Telegram6cryptoEv
libqtelegram-ae.so.1:_ZNK8Telegram7isSleptEv
libqtelegram-ae.so.1:_ZNK8Telegram8settingsEv
libqtelegram-ae.so.1:_ZNK8UserFull12profilePhotoEv
libqtelegram-ae.so.1:_ZNK8UserFull12realLastNameEv
libqtelegram-ae.so.1:_ZNK8UserFull13realFirstNameEv
libqtelegram-ae.so.1:_ZNK8UserFull14notifySettingsEv
libqtelegram-ae.so.1:_ZNK8UserFull4linkEv
libqtelegram-ae.so.1:_ZNK8UserFull4pushEP11OutboundPkt
libqtelegram-ae.so.1:_ZNK8UserFull4userEv
libqtelegram-ae.so.1:_ZNK8UserFull7blockedEv
libqtelegram-ae.so.1:_ZNK8UserFull9classTypeEv
libqtelegram-ae.so.1:_ZNK9ChatPhoto10photoSmallEv
libqtelegram-ae.so.1:_ZNK9ChatPhoto4pushEP11OutboundPkt
libqtelegram-ae.so.1:_ZNK9ChatPhoto8photoBigEv
libqtelegram-ae.so.1:_ZNK9ChatPhoto9classTypeEv
libqtelegram-ae.so.1:_ZNK9Decrypter10metaObjectEv
libqtelegram-ae.so.1:_ZNK9InputFile11md5ChecksumEv
libqtelegram-ae.so.1:_ZNK9InputFile2idEv
libqtelegram-ae.so.1:_ZNK9InputFile4nameEv
libqtelegram-ae.so.1:_ZNK9InputFile4pushEP11OutboundPkt
libqtelegram-ae.so.1:_ZNK9InputFile5partsEv
libqtelegram-ae.so.1:_ZNK9InputFile9classTypeEv
libqtelegram-ae.so.1:_ZNK9InputPeer10accessHashEv
libqtelegram-ae.so.1:_ZNK9InputPeer4pushEP11OutboundPkt
libqtelegram-ae.so.1:_ZNK9InputPeer6chatIdEv
libqtelegram-ae.so.1:_ZNK9InputPeer6userIdEv
libqtelegram-ae.so.1:_ZNK9InputPeer9classTypeEv
libqtelegram-ae.so.1:_ZNK9InputUser10accessHashEv
libqtelegram-ae.so.1:_ZNK9InputUser4pushEP11OutboundPkt
libqtelegram-ae.so.1:_ZNK9InputUser6userIdEv
libqtelegram-ae.so.1:_ZNK9InputUser9classTypeEv
libqtelegram-ae.so.1:_ZNK9NearestDc4pushEP11OutboundPkt
libqtelegram-ae.so.1:_ZNK9NearestDc6thisDcEv
libqtelegram-ae.so.1:_ZNK9NearestDc7countryEv
libqtelegram-ae.so.1:_ZNK9NearestDc9classTypeEv
libqtelegram-ae.so.1:_ZNK9NearestDc9nearestDcEv
libqtelegram-ae.so.1:_ZNK9PhotoSize1hEv
libqtelegram-ae.so.1:_ZNK9PhotoSize1wEv
libqtelegram-ae.so.1:_ZNK9PhotoSize4pushEP11OutboundPkt
libqtelegram-ae.so.1:_ZNK9PhotoSize4sizeEv
libqtelegram-ae.so.1:_ZNK9PhotoSize4typeEv
libqtelegram-ae.so.1:_ZNK9PhotoSize5bytesEv
libqtelegram-ae.so.1:_ZNK9PhotoSize8locationEv
libqtelegram-ae.so.1:_ZNK9PhotoSize9classTypeEv
libqtelegram-ae.so.1:_ZNK9WallPaper2idEv
libqtelegram-ae.so.1:_ZNK9WallPaper4pushEP11OutboundPkt
libqtelegram-ae.so.1:_ZNK9WallPaper5colorEv
libqtelegram-ae.so.1:_ZNK9WallPaper5sizesEv
libqtelegram-ae.so.1:_ZNK9WallPaper5titleEv
libqtelegram-ae.so.1:_ZNK9WallPaper7bgColorEv
libqtelegram-ae.so.1:_ZNK9WallPaper9classTypeEv
libqtelegram-ae.so.1:_ZThn16_N10ConnectionD0Ev
libqtelegram-ae.so.1:_ZThn16_N10ConnectionD1Ev
libqtelegram-ae.so.1:_ZThn16_N6DCAuthD0Ev
libqtelegram-ae.so.1:_ZThn16_N6DCAuthD1Ev
libqtelegram-ae.so.1:_ZThn16_N7SessionD0Ev
libqtelegram-ae.so.1:_ZThn16_N7SessionD1Ev
libqtelegram-ae.so.1:_ZThn16_N9DecrypterD0Ev
libqtelegram-ae.so.1:_ZThn16_N9DecrypterD1Ev
